


ARM Macro Assembler    Page 1 


    1 00000000         ;*******************************************************
                       ********************************************
    2 00000000         ;*
    3 00000000         ;* Misto   : CVUT FEL, Katedra Mereni
    4 00000000         ;* Prednasejici  : Doc. Ing. Jan Fischer,CSc.
    5 00000000         ;* Predmet   : A4M38AVS
    6 00000000         ;* Vyvojovy Kit  : STM32 VL DISCOVERY (STM32F100RB)
    7 00000000         ;*
    8 00000000         ;*******************************************************
                       *******************************************
    9 00000000         ;*
   10 00000000         ;* JMÉNO SOUBORU : LED_TLC.ASM
   11 00000000         ;* AUTOR   : JAKUB JIRA
   12 00000000         ;* DATUM   : 12/2020
   13 00000000         ;* POPIS   : Schodistovy automat
   14 00000000         ;*
   15 00000000         ;*******************************************************
                       ********************************************
   16 00000000                 AREA             MOJEDATA, DATA, NOINIT, READWRI
TE
   17 00000000         INIT_VALUE_L
                               SPACE            4
   18 00000004         INIT_VALUE_H
                               SPACE            4
   19 00000008         CURR_VALUE_L
                               SPACE            4
   20 0000000C         CURR_VALUE_H
                               SPACE            4
   21 00000010         
   22 00000010         
   23 00000010                 AREA             STM32F1xx, CODE, READONLY 
                                                            ; hlavicka souboru
   24 00000000         
   25 00000000                 GET              INI.s       ; vlozeni souboru s
                                                             pojmenovanymi adre
                                                            sami
    1 00000000         
    2 00000000         ;*******************************************************
                       *************************
    3 00000000         ;* JMÉNO SOUBORU : INI.S
    4 00000000         ;* AUTOR   : Michal TOMÁŠ
    5 00000000         ;* DATUM   : 03/2009
    6 00000000         ;* POPIS   : soubor s pojmenovanymi adresami registru
    7 00000000         ;*******************************************************
                       *************************
    8 00000000         
    9 00000000         
   10 00000000                 AREA             STM32F10x_INI, CODE, READONLY
   11 00000000         
   12 00000000         
   13 00000000         
   14 00000000         
   15 00000000         ;*******************************************************
                       *************************
   16 00000000         ;*       GPIOA         *
   17 00000000         ;*******************************************************
                       *************************
   18 00000000         ;GPIOA Registers 
   19 00000000         ;-------------------------------------------------------



ARM Macro Assembler    Page 2 


                       ------------------------- 
   20 00000000 40010800 
                       GPIOA_CRL
                               EQU              0x40010800
   21 00000000         ;-------------------------------------------------------
                       -------------------------
   22 00000000 40010804 
                       GPIOA_CRH
                               EQU              0x40010804
   23 00000000         ;-------------------------------------------------------
                       -------------------------
   24 00000000 40010808 
                       GPIOA_IDR
                               EQU              0x40010808  ; input data regist
                                                            
   25 00000000         ;GPIOA_IDR bits
   26 00000000 4221013C 
                       AIDR15  EQU              0x4221013C  ; 15
   27 00000000 42210138 
                       AIDR14  EQU              0x42210138  ; 14
   28 00000000 42210134 
                       AIDR13  EQU              0x42210134  ; 13
   29 00000000 42210130 
                       AIDR12  EQU              0x42210130  ; 12
   30 00000000 4221012C 
                       AIDR11  EQU              0x4221012C  ; 11
   31 00000000 42210128 
                       AIDR10  EQU              0x42210128  ; 10
   32 00000000 42210124 
                       AIDR9   EQU              0x42210124  ; 9
   33 00000000 42210120 
                       AIDR8   EQU              0x42210120  ; 8
   34 00000000 4221011C 
                       AIDR7   EQU              0x4221011C  ; 7
   35 00000000 42210118 
                       AIDR6   EQU              0x42210118  ; 6
   36 00000000 42210114 
                       AIDR5   EQU              0x42210114  ; 5
   37 00000000 42210110 
                       AIDR4   EQU              0x42210110  ; 4
   38 00000000 4221010C 
                       AIDR3   EQU              0x4221010C  ; 3
   39 00000000 42210108 
                       AIDR2   EQU              0x42210108  ; 2
   40 00000000 42210104 
                       AIDR1   EQU              0x42210104  ; 1
   41 00000000 42210100 
                       AIDR0   EQU              0x42210100  ; 0
   42 00000000         
   43 00000000         ;-------------------------------------------------------
                       -------------------------
   44 00000000 4001080C 
                       GPIOA_ODR
                               EQU              0x4001080C  ; output data regis
                                                            tr
   45 00000000         ;GPIOA_ODR bits
   46 00000000 422101BC 
                       AODR15  EQU              0x422101BC  ; 15
   47 00000000 422101B8 



ARM Macro Assembler    Page 3 


                       AODR14  EQU              0x422101B8  ; 14
   48 00000000 422101B4 
                       AODR13  EQU              0x422101B4  ; 13
   49 00000000 422101B0 
                       AODR12  EQU              0x422101B0  ; 12
   50 00000000 422101AC 
                       AODR11  EQU              0x422101AC  ; 11
   51 00000000 422101A8 
                       AODR10  EQU              0x422101A8  ; 10
   52 00000000 422101A4 
                       AODR9   EQU              0x422101A4  ; 9
   53 00000000 422101A0 
                       AODR8   EQU              0x422101A0  ; 8
   54 00000000 4221019C 
                       AODR7   EQU              0x4221019C  ; 7
   55 00000000 42210198 
                       AODR6   EQU              0x42210198  ; 6
   56 00000000 42210194 
                       AODR5   EQU              0x42210194  ; 5
   57 00000000 42210190 
                       AODR4   EQU              0x42210190  ; 4
   58 00000000 4221018C 
                       AODR3   EQU              0x4221018C  ; 3
   59 00000000 42210188 
                       AODR2   EQU              0x42210188  ; 2
   60 00000000 42210184 
                       AODR1   EQU              0x42210184  ; 1
   61 00000000 42210180 
                       AODR0   EQU              0x42210180  ; 0
   62 00000000         
   63 00000000         ;-------------------------------------------------------
                       -------------------------
   64 00000000 40010810 
                       GPIOA_BSRR
                               EQU              0x40010810
   65 00000000         ;-------------------------------------------------------
                       -------------------------
   66 00000000 40010814 
                       GPIOA_BRR
                               EQU              0x40010814
   67 00000000         ;-------------------------------------------------------
                       -------------------------
   68 00000000 40010818 
                       GPIOA_LCKR
                               EQU              0x40010818
   69 00000000         ;-------------------------------------------------------
                       -------------------------
   70 00000000         
   71 00000000         ;*******************************************************
                       *************************
   72 00000000         ;*       GPIOC         *
   73 00000000         ;*******************************************************
                       *************************
   74 00000000         ;GPIOC Registers 
   75 00000000         ;-------------------------------------------------------
                       -------------------------
   76 00000000 40011000 
                       GPIOC_CRL
                               EQU              0x40011000



ARM Macro Assembler    Page 4 


   77 00000000         ;-------------------------------------------------------
                       -------------------------
   78 00000000 40011004 
                       GPIOC_CRH
                               EQU              0x40011004
   79 00000000         ;-------------------------------------------------------
                       -------------------------
   80 00000000 40011008 
                       GPIOC_IDR
                               EQU              0x40011008  ; input data regist
                                                            
   81 00000000         ;GPIOC_IDR bits
   82 00000000 4222013C 
                       CIDR15  EQU              0x4222013C  ; 15
   83 00000000 42220138 
                       CIDR14  EQU              0x42220138  ; 14
   84 00000000 42220134 
                       CIDR13  EQU              0x42220134  ; 13
   85 00000000 42220130 
                       CIDR12  EQU              0x42220130  ; 12
   86 00000000 4222012C 
                       CIDR11  EQU              0x4222012C  ; 11
   87 00000000 42220128 
                       CIDR10  EQU              0x42220128  ; 10
   88 00000000 42220124 
                       CIDR9   EQU              0x42220124  ; 9
   89 00000000 42220120 
                       CIDR8   EQU              0x42220120  ; 8
   90 00000000 4222011C 
                       CIDR7   EQU              0x4222011C  ; 7
   91 00000000 42220118 
                       CIDR6   EQU              0x42220118  ; 6
   92 00000000 42220114 
                       CIDR5   EQU              0x42220114  ; 5
   93 00000000 42220110 
                       CIDR4   EQU              0x42220110  ; 4
   94 00000000 4222010C 
                       CIDR3   EQU              0x4222010C  ; 3
   95 00000000 42220108 
                       CIDR2   EQU              0x42220108  ; 2
   96 00000000 42220104 
                       CIDR1   EQU              0x42220104  ; 1
   97 00000000 42220100 
                       CIDR0   EQU              0x42220100  ; 0
   98 00000000         
   99 00000000         ;-------------------------------------------------------
                       -------------------------
  100 00000000 4001100C 
                       GPIOC_ODR
                               EQU              0x4001100C  ; output data regis
                                                            tr
  101 00000000         ;GPIOC_ODR bits
  102 00000000 422201BC 
                       CODR15  EQU              0x422201BC  ; 15
  103 00000000 422201B8 
                       CODR14  EQU              0x422201B8  ; 14
  104 00000000 422201B4 
                       CODR13  EQU              0x422201B4  ; 13
  105 00000000 422201B0 



ARM Macro Assembler    Page 5 


                       CODR12  EQU              0x422201B0  ; 12
  106 00000000 422201AC 
                       CODR11  EQU              0x422201AC  ; 11
  107 00000000 422201A8 
                       CODR10  EQU              0x422201A8  ; 10
  108 00000000 422201A4 
                       CODR9   EQU              0x422201A4  ; 9
  109 00000000 422201A0 
                       CODR8   EQU              0x422201A0  ; 8
  110 00000000 4222019C 
                       CODR7   EQU              0x4222019C  ; 7
  111 00000000 42220198 
                       CODR6   EQU              0x42220198  ; 6
  112 00000000 42220194 
                       CODR5   EQU              0x42220194  ; 5
  113 00000000 42220190 
                       CODR4   EQU              0x42220190  ; 4
  114 00000000 4222018C 
                       CODR3   EQU              0x4222018C  ; 3
  115 00000000 42220188 
                       CODR2   EQU              0x42220188  ; 2
  116 00000000 42220184 
                       CODR1   EQU              0x42220184  ; 1
  117 00000000 42220180 
                       CODR0   EQU              0x42220180  ; 0
  118 00000000         ;-------------------------------------------------------
                       -------------------------
  119 00000000 40011010 
                       GPIOC_BSRR
                               EQU              0x40011010
  120 00000000         ;-------------------------------------------------------
                       -------------------------
  121 00000000 40011014 
                       GPIOC_BRR
                               EQU              0x40011014
  122 00000000         ;-------------------------------------------------------
                       -------------------------
  123 00000000 40011018 
                       GPIOC_LCKR
                               EQU              0x40011018
  124 00000000         ;-------------------------------------------------------
                       -------------------------
  125 00000000         
  126 00000000         
  127 00000000         ;*******************************************************
                       *************************
  128 00000000         ;*       GPIOB         *
  129 00000000         ;*******************************************************
                       *************************
  130 00000000         ;GPIOB Registers 
  131 00000000         ;-------------------------------------------------------
                       -------------------------
  132 00000000 40010C00 
                       GPIOB_CRL
                               EQU              0x40010C00
  133 00000000         ;-------------------------------------------------------
                       -------------------------
  134 00000000 40010C04 
                       GPIOB_CRH



ARM Macro Assembler    Page 6 


                               EQU              0x40010C04
  135 00000000         ;-------------------------------------------------------
                       -------------------------
  136 00000000 40010C08 
                       GPIOB_IDR
                               EQU              0x40010C08  ; input data regist
                                                            
  137 00000000         ;GPIOB_IDR bits
  138 00000000 4221813C 
                       BIDR15  EQU              0x4221813C  ; 15
  139 00000000 42218138 
                       BIDR14  EQU              0x42218138  ; 14
  140 00000000 42218134 
                       BIDR13  EQU              0x42218134  ; 13
  141 00000000 42218130 
                       BIDR12  EQU              0x42218130  ; 12
  142 00000000 4221812C 
                       BIDR11  EQU              0x4221812C  ; 11
  143 00000000 42218128 
                       BIDR10  EQU              0x42218128  ; 10
  144 00000000 42218124 
                       BIDR9   EQU              0x42218124  ; 9
  145 00000000 42218120 
                       BIDR8   EQU              0x42218120  ; 8
  146 00000000 4221811C 
                       BIDR7   EQU              0x4221811C  ; 7
  147 00000000 42218118 
                       BIDR6   EQU              0x42218118  ; 6
  148 00000000 42218114 
                       BIDR5   EQU              0x42218114  ; 5
  149 00000000 42218110 
                       BIDR4   EQU              0x42218110  ; 4
  150 00000000 4221810C 
                       BIDR3   EQU              0x4221810C  ; 3
  151 00000000 42218108 
                       BIDR2   EQU              0x42218108  ; 2
  152 00000000 42218104 
                       BIDR1   EQU              0x42218104  ; 1
  153 00000000 42218100 
                       BIDR0   EQU              0x42218100  ; 0
  154 00000000         
  155 00000000         ;-------------------------------------------------------
                       -------------------------
  156 00000000 40010C0C 
                       GPIOB_ODR
                               EQU              0x40010C0C  ; output data regis
                                                            tr
  157 00000000         ;GPIOB_ODR bits
  158 00000000 422181BC 
                       BODR15  EQU              0x422181BC  ; 15
  159 00000000 422181B8 
                       BODR14  EQU              0x422181B8  ; 14
  160 00000000 422181B4 
                       BODR13  EQU              0x422181B4  ; 13
  161 00000000 422181B0 
                       BODR12  EQU              0x422181B0  ; 12
  162 00000000 422181AC 
                       BODR11  EQU              0x422181AC  ; 11
  163 00000000 422181A8 



ARM Macro Assembler    Page 7 


                       BODR10  EQU              0x422181A8  ; 10
  164 00000000 422181A4 
                       BODR9   EQU              0x422181A4  ; 9
  165 00000000 422181A0 
                       BODR8   EQU              0x422181A0  ; 8
  166 00000000 4221819C 
                       BODR7   EQU              0x4221819C  ; 7
  167 00000000 42218198 
                       BODR6   EQU              0x42218198  ; 6
  168 00000000 42218194 
                       BODR5   EQU              0x42218194  ; 5
  169 00000000 42218190 
                       BODR4   EQU              0x42218190  ; 4
  170 00000000 4221818C 
                       BODR3   EQU              0x4221818C  ; 3
  171 00000000 42218188 
                       BODR2   EQU              0x42218188  ; 2
  172 00000000 42218184 
                       BODR1   EQU              0x42218184  ; 1
  173 00000000 42218180 
                       BODR0   EQU              0x42218180  ; 0
  174 00000000         ;-------------------------------------------------------
                       -------------------------
  175 00000000 40010C10 
                       GPIOB_BSRR
                               EQU              0x40010C10
  176 00000000         ;-------------------------------------------------------
                       -------------------------
  177 00000000 40010C14 
                       GPIOB_BRR
                               EQU              0x40010C14
  178 00000000         ;-------------------------------------------------------
                       -------------------------
  179 00000000 40010C18 
                       GPIOB_LCKR
                               EQU              0x40010C18
  180 00000000         ;-------------------------------------------------------
                       -------------------------
  181 00000000         
  182 00000000         
  183 00000000         ;*******************************************************
                       *************************
  184 00000000         ;*       RCC         *
  185 00000000         ;*******************************************************
                       *************************
  186 00000000         ;RCC Registers   
  187 00000000         ;-------------------------------------------------------
                       -------------------------
  188 00000000 40021000 
                       RCC_CR  EQU              0x40021000  ; clock control reg
                                                            istr
  189 00000000         ;RCC_CR BIT
  190 00000000 42420064 
                       PLLRDY  EQU              0x42420064  ; 25
  191 00000000 42420060 
                       PLLON   EQU              0x42420060  ; 24
  192 00000000 4242004C 
                       CSSON   EQU              0x4242004C  ; 19
  193 00000000 42420048 



ARM Macro Assembler    Page 8 


                       HSEBYP  EQU              0x42420048  ; 18
  194 00000000 42420044 
                       HSERDY  EQU              0x42420044  ; 17
  195 00000000 42420040 
                       HSEON   EQU              0x42420040  ; 16
  196 00000000 42420020 
                       HSICAL  EQU              0x42420020  ; 8
  197 00000000 4242000C 
                       HSITRIM EQU              0x4242000C  ; 3
  198 00000000 42420004 
                       HSIRDY  EQU              0x42420004  ; 1
  199 00000000 42420000 
                       HSION   EQU              0x42420000  ; 0
  200 00000000         ;-------------------------------------------------------
                       -------------------------
  201 00000000 40021004 
                       RCC_CFGR
                               EQU              0x40021004  ; clock configurati
                                                            on registr
  202 00000000         ;RCC_CFGR bits
  203 00000000 424200E0 
                       MCO     EQU              0x424200E0  ; 24
  204 00000000 424200D8 
                       USBPRE  EQU              0x424200D8  ; 22
  205 00000000 424200C8 
                       PLLMUL  EQU              0x424200C8  ; 18
  206 00000000 424200C4 
                       PLLXTPRE
                               EQU              0x424200C4  ; 17
  207 00000000 424200C0 
                       PLLSRC  EQU              0x424200C0  ; 16
  208 00000000 424200B8 
                       ADCPRE  EQU              0x424200B8  ; 14
  209 00000000 424200AC 
                       PPRE2   EQU              0x424200AC  ; 11
  210 00000000 424200A0 
                       PPRE1   EQU              0x424200A0  ; 8
  211 00000000 42420090 
                       HPRE    EQU              0x42420090  ; 4
  212 00000000 42420088 
                       SWS     EQU              0x42420088  ; 2
  213 00000000 42420080 
                       SW      EQU              0x42420080  ; 0
  214 00000000         ;-------------------------------------------------------
                       -------------------------
  215 00000000 40021008 
                       RCC_CIR EQU              0x40021008
  216 00000000         ;RCC_CIR  bits
  217 00000000         
  218 00000000 42420120 
                       LSIRDYIE
                               EQU              0x42420120  ; 8
  219 00000000 4242011C 
                       CSSF    EQU              0x4242011C  ; 7
  220 00000000 42420110 
                       PLLRDYF EQU              0x42420110  ; 4
  221 00000000 4242010C 
                       HSERDYF EQU              0x4242010C  ; 3
  222 00000000 42420108 



ARM Macro Assembler    Page 9 


                       HSIRDYF EQU              0x42420108  ; 2
  223 00000000 42420104 
                       LSERDYF EQU              0x42420104  ; 1
  224 00000000 42420100 
                       LSIRDYF EQU              0x42420100  ; 0
  225 00000000         ;-------------------------------------------------------
                       -------------------------
  226 00000000 4002100C 
                       RCC_APB2RSTR
                               EQU              0x4002100C
  227 00000000         ;-------------------------------------------------------
                       -------------------------
  228 00000000 40021010 
                       RCC_APB1RSTR
                               EQU              0x40021010
  229 00000000         ;-------------------------------------------------------
                       -------------------------
  230 00000000 40021014 
                       RCC_AHBENR
                               EQU              0x40021014
  231 00000000         ;-------------------------------------------------------
                       -------------------------
  232 00000000 40021018 
                       RCC_APB2ENR
                               EQU              0x40021018
  233 00000000         ;RCC_APB2ENR bits
  234 00000000 4242033C 
                       ADC3EN  EQU              0x4242033C  ; 15
  235 00000000 42420338 
                       USRT1EN EQU              0x42420338  ; 14
  236 00000000 42420334 
                       TIM8EN  EQU              0x42420334  ; 13
  237 00000000 42420330 
                       SPI1EN  EQU              0x42420330  ; 12
  238 00000000 4242032C 
                       TIM1EN  EQU              0x4242032C  ; 11
  239 00000000 42420328 
                       ADC2EN  EQU              0x42420328  ; 10
  240 00000000 42420324 
                       ADC1EN  EQU              0x42420324  ; 9
  241 00000000 42420320 
                       IOPGEN  EQU              0x42420320  ; 8
  242 00000000 4242031C 
                       IOPFEN  EQU              0x4242031C  ; 7
  243 00000000 42420318 
                       IOPEEN  EQU              0x42420318  ; 6
  244 00000000 42420314 
                       IOPDEN  EQU              0x42420314  ; 5
  245 00000000 42420310 
                       IOPCEN  EQU              0x42420310  ; 4
  246 00000000 4242030C 
                       IOPBEN  EQU              0x4242030C  ; 3
  247 00000000 42420308 
                       IOPAEN  EQU              0x42420308  ; 2
  248 00000000 42420300 
                       AFIOEN  EQU              0x42420300  ; 0
  249 00000000         ;-------------------------------------------------------
                       -------------------------
  250 00000000 4002101C 



ARM Macro Assembler    Page 10 


                       RCC_APB1ENR
                               EQU              0x4002101C
  251 00000000         ;RCC_APB1ENR bits
  252 00000000 424203F4 
                       DACEN   EQU              0x424203F4  ; 29
  253 00000000 424203EC 
                       PWREN   EQU              0x424203EC  ; 28
  254 00000000 424203E8 
                       BKPEN   EQU              0x424203E8  ; 27
  255 00000000 424203E4 
                       CANEN   EQU              0x424203E4  ; 25
  256 00000000 424203DC 
                       USBEN   EQU              0x424203DC  ; 23
  257 00000000 424203D8 
                       I2C2EN  EQU              0x424203D8  ; 22
  258 00000000 424203D4 
                       I2C1EN  EQU              0x424203D4  ; 21
  259 00000000 424203D0 
                       USART5EN
                               EQU              0x424203D0  ; 20
  260 00000000 424203CC 
                       USART4EN
                               EQU              0x424203CC  ; 19
  261 00000000 424203C8 
                       USART3EN
                               EQU              0x424203C8  ; 18
  262 00000000 424203C4 
                       USART2EN
                               EQU              0x424203C4  ; 17
  263 00000000 424203BC 
                       SPI3EN  EQU              0x424203BC  ; 15
  264 00000000 424203B8 
                       SPI2EN  EQU              0x424203B8  ; 14
  265 00000000 424203AC 
                       WWDGEN  EQU              0x424203AC  ; 11
  266 00000000 42420394 
                       TIM7EN  EQU              0x42420394  ; 5
  267 00000000 42420390 
                       TIM6EN  EQU              0x42420390  ; 4
  268 00000000 4242038C 
                       TIM5EN  EQU              0x4242038C  ; 3
  269 00000000 42420388 
                       TIM4EN  EQU              0x42420388  ; 2
  270 00000000 42420384 
                       TIM3EN  EQU              0x42420384  ; 1
  271 00000000 42420380 
                       TIM2EN  EQU              0x42420380  ; 0
  272 00000000         ;-------------------------------------------------------
                       -------------------------
  273 00000000 40021020 
                       RCC_BDCR
                               EQU              0x40021020
  274 00000000         ;-------------------------------------------------------
                       -------------------------
  275 00000000 40021024 
                       RCC_CSR EQU              0x40021024
  276 00000000         ;-------------------------------------------------------
                       -------------------------
  277 00000000         



ARM Macro Assembler    Page 11 


  278 00000000         
  279 00000000         
  280 00000000         ;*******************************************************
                       *************************
  281 00000000         ;*       AFIO         *
  282 00000000         ;*******************************************************
                       *************************
  283 00000000         ;AFIO Registers   
  284 00000000         ;-------------------------------------------------------
                       -------------------------
  285 00000000 40010004 
                       AFIO_MAPR
                               EQU              0x40010004
  286 00000000         ;AFIO_MAPR bits
  287 00000000 422000E0 
                       SWJ_CFG EQU              0x422000E0  ; 24
  288 00000000 422000D0 
                       ADC2_ETRGREG_REMAP
                               EQU              0x422000D0  ; 20
  289 00000000 422000CC 
                       ADC2_ETRGINJ_REMAP
                               EQU              0x422000CC  ; 19
  290 00000000 422000C8 
                       ADC1_ETRGREG_REMAP
                               EQU              0x422000C8  ; 18
  291 00000000 422000C4 
                       ADC1_ETRGINJ_REMAP
                               EQU              0x422000C4  ; 17
  292 00000000 422000C0 
                       TIM5CH4_IREMAP
                               EQU              0x422000C0  ; 16
  293 00000000 422000BC 
                       PD01_REMAP
                               EQU              0x422000BC  ; 15
  294 00000000 422000B4 
                       CAN_REMAP
                               EQU              0x422000B4  ; 13
  295 00000000 422000B0 
                       TIM4_REMAP
                               EQU              0x422000B0  ; 12
  296 00000000 422000A8 
                       TIM3_REMAP
                               EQU              0x422000A8  ; 10
  297 00000000 422000A0 
                       TIM2_REMAP
                               EQU              0x422000A0  ; 8
  298 00000000 42200098 
                       TIM1_REMAP
                               EQU              0x42200098  ; 6
  299 00000000 42200090 
                       USART3_REMAP
                               EQU              0x42200090  ; 4
  300 00000000 4220008C 
                       USART2_REMAP
                               EQU              0x4220008C  ; 3
  301 00000000 42200088 
                       USART1_REMAP
                               EQU              0x42200088  ; 2
  302 00000000 42200084 



ARM Macro Assembler    Page 12 


                       I2C1_REMAP
                               EQU              0x42200084  ; 1
  303 00000000 42200080 
                       SPI1_REMAP
                               EQU              0x42200080  ; 0
  304 00000000         ;-------------------------------------------------------
                       -------------------------
  305 00000000 40010008 
                       AFIO_EXTICR1
                               EQU              0x40010008  ; External Interrup
                                                            t Configuration Reg
                                                            istr 1
  306 00000000 4001000C 
                       AFIO_EXTICR2
                               EQU              0x4001000C  ; External Interrup
                                                            t Configuration Reg
                                                            istr 2
  307 00000000 40010010 
                       AFIO_EXTICR3
                               EQU              0x40010010  ; External Interrup
                                                            t Configuration Reg
                                                            istr 3
  308 00000000 40010014 
                       AFIO_EXTICR4
                               EQU              0x40010014  ; External Interrup
                                                            t Configuration Reg
                                                            istr 3
  309 00000000         
  310 00000000         
  311 00000000         
  312 00000000         ;*******************************************************
                       *************************
  313 00000000         ;*       USART         *
  314 00000000         ;*******************************************************
                       *************************
  315 00000000         ;USART Registers   
  316 00000000         ;-------------------------------------------------------
                       -------------------------
  317 00000000         
  318 00000000 40013800 
                       USART_SR
                               EQU              0x40013800  ;status registr
  319 00000000         ;-------------------------------------------------------
                       -------------------------
  320 00000000 40013804 
                       USART_DR
                               EQU              0x40013804  ;data registr
  321 00000000         ;-------------------------------------------------------
                       -------------------------
  322 00000000 40013808 
                       USART_BRR
                               EQU              0x40013808  ;baud rate registr
  323 00000000         ;-------------------------------------------------------
                       -------------------------
  324 00000000 4001380C 
                       USART_CR1
                               EQU              0x4001380C  ;control registr 1
  325 00000000         ;-------------------------------------------------------
                       -------------------------



ARM Macro Assembler    Page 13 


  326 00000000 40013810 
                       USART_CR2
                               EQU              0x40013810  ;control registr 2
  327 00000000         ;-------------------------------------------------------
                       -------------------------
  328 00000000 40013814 
                       USART_CR3
                               EQU              0x40013814  ;control registr 3
  329 00000000         ;-------------------------------------------------------
                       -------------------------
  330 00000000 40013818 
                       USART_GTPR
                               EQU              0x40013818  ;guard time and pre
                                                            dscale registr (hli
                                                            dac a predelicka)  
                                                            
  331 00000000         ;-------------------------------------------------------
                       -------------------------
  332 00000000         
  333 00000000         
  334 00000000         
  335 00000000         
  336 00000000         ;*******************************************************
                       *************************
  337 00000000         ;*       FLASH         *
  338 00000000         ;*******************************************************
                       *************************
  339 00000000         ;FLASH Registers   
  340 00000000         ;-------------------------------------------------------
                       -------------------------
  341 00000000 40022000 
                       FLASH_ACR
                               EQU              0x40022000  ;flash access contr
                                                            ol registr
  342 00000000         ;-------------------------------------------------------
                       -------------------------
  343 00000000         
  344 00000000         
  345 00000000         ;*******************************************************
                       *************************
  346 00000000         ;*       TIM1         *
  347 00000000         ;*******************************************************
                       *************************
  348 00000000         ;TIM1 Registers   
  349 00000000         ;-------------------------------------------------------
                       -------------------------
  350 00000000 40012C00 
                       TIM1_CR1
                               EQU              0x40012C00  ; CONTROL 1 
  351 00000000         ;TIM1_CR1  bits
  352 00000000 42258010 
                       DIR_T1  EQU              0x42258010  ; 4 bit DIRECTION
  353 00000000 4225800C 
                       OPM_T1  EQU              0x4225800C  ; 3 bit ONE PULSE M
                                                            ODE
  354 00000000 42258008 
                       URS_T1  EQU              0x42258008  ; 2 bit Update Requ
                                                            est Source
  355 00000000 42258004 



ARM Macro Assembler    Page 14 


                       UDIS_T1 EQU              0x42258004  ; 1 bit Update Disa
                                                            ble
  356 00000000 42258000 
                       CEN_T1  EQU              0x42258000  ; 0 bit Counter Ena
                                                            ble
  357 00000000         ;-------------------------------------------------------
                       ------------------------
  358 00000000 40012C04 
                       TIM1_CR2
                               EQU              0x40012C04  ; CONTROL 2
  359 00000000         ;-------------------------------------------------------
                       -------------------------
  360 00000000 40012C08 
                       TIM1_SMCR
                               EQU              0x40012C08  ; SLAVE MODE CONTRO
                                                            L  
  361 00000000         ;-------------------------------------------------------
                       -------------------------
  362 00000000 40012C0C 
                       TIM1_DIER
                               EQU              0x40012C0C  ;  
  363 00000000         ;TIM1_DIER bits
  364 00000000 42258198 
                       TIE_T1  EQU              0x42258198  ; 6 bit Trigger Int
                                                            errupt Enable
  365 00000000 42258184 
                       CC4IE_T1
                               EQU              0x42258184  ; 4 bit Capture/Com
                                                            pare Interrupt Enab
                                                            le
  366 00000000 42258180 
                       UIE_T1  EQU              0x42258180  ; 0 bit Update Inte
                                                            rrupt Enable
  367 00000000         ;-------------------------------------------------------
                       -------------------------
  368 00000000 40012C10 
                       TIM1_SR EQU              0x40012C10  ; STATUS 
  369 00000000         ;-------------------------------------------------------
                       -------------------------
  370 00000000 40012C14 
                       TIM1_EGR
                               EQU              0x40012C14  ; EVENT GENERATION 
                                                            
  371 00000000         ;-------------------------------------------------------
                       -------------------------
  372 00000000 40012C18 
                       TIM1_CCMR1
                               EQU              0x40012C18  ;  
  373 00000000         ;-------------------------------------------------------
                       -------------------------
  374 00000000 40012C1C 
                       TIM1_CCMR2
                               EQU              0x40012C1C  ;
  375 00000000         ;-------------------------------------------------------
                       -------------------------
  376 00000000 40012C20 
                       TIM1_CCR
                               EQU              0x40012C20  ; CAPTURE/COMPARE E
                                                            NABLE



ARM Macro Assembler    Page 15 


  377 00000000         ;-------------------------------------------------------
                       -------------------------
  378 00000000 40012C24 
                       TIM1_CNT
                               EQU              0x40012C24  ; COUNTER
  379 00000000         ;-------------------------------------------------------
                       -------------------------
  380 00000000 40012C28 
                       TIM1_PSC
                               EQU              0x40012C28  ; PRESCALER
  381 00000000         ;-------------------------------------------------------
                       -------------------------
  382 00000000 40012C2C 
                       TIM1_ARR
                               EQU              0x40012C2C  ; AUTO RELOAD
  383 00000000         ;-------------------------------------------------------
                       -------------------------
  384 00000000 40012C30 
                       TIM1_RCR
                               EQU              0x40012C30  ; REPETITION
  385 00000000         ;-------------------------------------------------------
                       -------------------------
  386 00000000 40012C34 
                       TIM1_CCR1
                               EQU              0x40012C34  ; COMPARE/CAPTURE
  387 00000000         ;-------------------------------------------------------
                       -------------------------
  388 00000000 40012C38 
                       TIM1_CCR2
                               EQU              0x40012C38  ; COMPARE/CAPTURE
  389 00000000         ;-------------------------------------------------------
                       -------------------------
  390 00000000 40012C3C 
                       TIM1_CCR3
                               EQU              0x40012C3C  ; COMPARE/CAPTURE
  391 00000000         ;-------------------------------------------------------
                       -------------------------
  392 00000000 40012C40 
                       TIM1_CCR4
                               EQU              0x40012C40  ; COMPARE/CAPTURE  
                                                             
  393 00000000         ;-------------------------------------------------------
                       -------------------------
  394 00000000 40012C44 
                       TIM1_BDTR
                               EQU              0x40012C44  ; BREAK AND DEAD-TI
                                                            ME
  395 00000000         ;-------------------------------------------------------
                       -------------------------
  396 00000000 40012C48 
                       TIM1_DCR
                               EQU              0x40012C48  ; DMA CONTROL
  397 00000000         ;-------------------------------------------------------
                       -------------------------
  398 00000000 40012C4C 
                       TIM1_DMAR
                               EQU              0x40012C4C  ; DMA ADDRESS FOR F
                                                            ULL TRANSFER
  399 00000000         



ARM Macro Assembler    Page 16 


  400 00000000         
  401 00000000         
  402 00000000         ;*******************************************************
                       *************************
  403 00000000         ;*       TIM2         *
  404 00000000         ;*******************************************************
                       *************************
  405 00000000         ;TIM2 Registers   
  406 00000000         ;-------------------------------------------------------
                       -------------------------
  407 00000000 40000000 
                       TIM2_CR1
                               EQU              0x40000000  ; CONTROL 1 
  408 00000000         ;TIM2_CR1  bits
  409 00000000 42000010 
                       DIR_T2  EQU              0x42000010  ; 4 bit DIRECTION
  410 00000000 4200000C 
                       OPM_T2  EQU              0x4200000C  ; 3 bit ONE PULSE M
                                                            ODE
  411 00000000 42000008 
                       URS_T2  EQU              0x42000008  ; 2 bit Update Requ
                                                            est Source
  412 00000000 42000004 
                       UDIS_T2 EQU              0x42000004  ; 1 bit Update Disa
                                                            ble
  413 00000000 42000000 
                       CEN_T2  EQU              0x42000000  ; 0 bit Counter Ena
                                                            ble
  414 00000000         ;-------------------------------------------------------
                       -------------------------
  415 00000000 40000004 
                       TIM2_CR2
                               EQU              0x40000004  ; CONTROL 2
  416 00000000         ;-------------------------------------------------------
                       -------------------------
  417 00000000 40000008 
                       TIM2_SMCR
                               EQU              0x40000008  ; SLAVE MODE CONTRO
                                                            L
  418 00000000         ;-------------------------------------------------------
                       -------------------------
  419 00000000 4000000C 
                       TIM2_DIER
                               EQU              0x4000000C  ; 
  420 00000000         ;TIM2_DIER bits
  421 00000000 42000198 
                       TIE_T2  EQU              0x42000198  ; 6 bit Trigger Int
                                                            errupt Enable
  422 00000000 42000190 
                       CC4IE_T2
                               EQU              0x42000190  ; 4 bit Capture/Com
                                                            pare Interrupt Enab
                                                            le
  423 00000000 4200018C 
                       CC3IE_T2
                               EQU              0x4200018C  ; 3 bit Capture/Com
                                                            pare Interrupt Enab
                                                            le
  424 00000000 42000188 



ARM Macro Assembler    Page 17 


                       CC2IE_T2
                               EQU              0x42000188  ; 2 bit Capture/Com
                                                            pare Interrupt Enab
                                                            le
  425 00000000 42000184 
                       CC1IE_T2
                               EQU              0x42000184  ; 1 bit Capture/Com
                                                            pare Interrupt Enab
                                                            le
  426 00000000 42000180 
                       UIE_T2  EQU              0x42000180  ; 0 bit Update Inte
                                                            rrupt Enable
  427 00000000         ;-------------------------------------------------------
                       -------------------------
  428 00000000 40000010 
                       TIM2_SR EQU              0x40000010  ; STATUS
  429 00000000         ;-------------------------------------------------------
                       -------------------------
  430 00000000 40000014 
                       TIM2_EGR
                               EQU              0x40000014  ; EVENT GENERATION
  431 00000000         ;-------------------------------------------------------
                       ------------------------- 
  432 00000000 40000018 
                       TIM2_CCMR1
                               EQU              0x40000018  ;  
  433 00000000         ;-------------------------------------------------------
                       -------------------------
  434 00000000 4000001C 
                       TIM2_CCMR2
                               EQU              0x4000001C  ;
  435 00000000         ;-------------------------------------------------------
                       -------------------------
  436 00000000 40000020 
                       TIM2_CCER
                               EQU              0x40000020  ; CAPTURE/COMPARE E
                                                            NABLE
  437 00000000         ;-------------------------------------------------------
                       -------------------------
  438 00000000 40000024 
                       TIM2_CNT
                               EQU              0x40000024  ; COUNTER
  439 00000000         ;-------------------------------------------------------
                       -------------------------
  440 00000000 40000028 
                       TIM2_PSC
                               EQU              0x40000028  ; PRESCALER
  441 00000000         ;-------------------------------------------------------
                       -------------------------
  442 00000000 4000002C 
                       TIM2_ARR
                               EQU              0x4000002C  ; AUTO RELOAD
  443 00000000         ;-------------------------------------------------------
                       -------------------------
  444 00000000 40000030 
                       TIM2_RCR
                               EQU              0x40000030  ; REPETITION
  445 00000000         ;-------------------------------------------------------
                       -------------------------



ARM Macro Assembler    Page 18 


  446 00000000 40000034 
                       TIM2_CCR1
                               EQU              0x40000034  ; COMPARE/CAPTURE
  447 00000000         ;-------------------------------------------------------
                       -------------------------
  448 00000000 40000038 
                       TIM2_CCR2
                               EQU              0x40000038  ; COMPARE/CAPTURE
  449 00000000         ;-------------------------------------------------------
                       -------------------------
  450 00000000 4000003C 
                       TIM2_CCR3
                               EQU              0x4000003C  ; COMPARE/CAPTURE
  451 00000000         ;-------------------------------------------------------
                       -------------------------
  452 00000000 40000040 
                       TIM2_CCR4
                               EQU              0x40000040  ; COMPARE/CAPTURE
  453 00000000         ;-------------------------------------------------------
                       -------------------------
  454 00000000 40000044 
                       TIM2_BDTR
                               EQU              0x40000044  ; BREAK AND DEAD-TI
                                                            ME
  455 00000000         ;-------------------------------------------------------
                       -------------------------
  456 00000000 40000048 
                       TIM2_DCR
                               EQU              0x40000048  ; DMA CONTROL
  457 00000000         ;-------------------------------------------------------
                       -------------------------
  458 00000000 4000004C 
                       TIM2_DMAR
                               EQU              0x4000004C  ; DMA ADDRESS FOR F
                                                            ULL TRANSFER
  459 00000000         ;-------------------------------------------------------
                       -------------------------
  460 00000000         
  461 00000000         
  462 00000000         
  463 00000000         ;*******************************************************
                       *************************
  464 00000000         ;*       TIM3         *
  465 00000000         ;*******************************************************
                       *************************
  466 00000000         ;TIM3 Registers   
  467 00000000         ;-------------------------------------------------------
                       -------------------------
  468 00000000 40000400 
                       TIM3_CR1
                               EQU              0x40000400  ; CONTROL 1 
  469 00000000         ;TIM3_CR1 bits
  470 00000000 42008010 
                       DIR_T3  EQU              0x42008010  ; 4 bit DIRECTION
  471 00000000 4200800C 
                       OPM_T3  EQU              0x4200800C  ; 3 bit ONE PULSE M
                                                            ODE
  472 00000000 42008008 
                       URS_T3  EQU              0x42008008  ; 2 bit Update Requ



ARM Macro Assembler    Page 19 


                                                            est Source
  473 00000000 42008004 
                       UDIS_T3 EQU              0x42008004  ; 1 bit Update Disa
                                                            ble
  474 00000000 42008000 
                       CEN_T3  EQU              0x42008000  ; 0 bit Counter Ena
                                                            ble
  475 00000000         ;-------------------------------------------------------
                       -------------------------
  476 00000000 40000404 
                       TIM3_CR2
                               EQU              0x40000404  ; CONTROL 2
  477 00000000         ;-------------------------------------------------------
                       -------------------------
  478 00000000 40000408 
                       TIM3_SMCR
                               EQU              0x40000408  ; SLAVE MODE CONTRO
                                                            L
  479 00000000         ;-------------------------------------------------------
                       -------------------------
  480 00000000 4000040C 
                       TIM3_DIER
                               EQU              0x4000040C  ; 
  481 00000000         ;TIM3_DIER bits
  482 00000000 42008198 
                       TIE_T3  EQU              0x42008198  ; 6 bit Trigger Int
                                                            errupt Enable
  483 00000000 42008190 
                       CC4IE_T3
                               EQU              0x42008190  ; 4 bit Capture/Com
                                                            pare Interrupt Enab
                                                            le
  484 00000000 4200018C 
                       CC3IE_T3
                               EQU              0x4200018C  ; 3 bit Capture/Com
                                                            pare Interrupt Enab
                                                            le
  485 00000000 42000188 
                       CC2IE_T3
                               EQU              0x42000188  ; 2 bit Capture/Com
                                                            pare Interrupt Enab
                                                            le
  486 00000000 42000184 
                       CC1IE_T3
                               EQU              0x42000184  ; 1 bit Capture/Com
                                                            pare Interrupt Enab
                                                            le
  487 00000000 42008180 
                       UIE_T3  EQU              0x42008180  ; 0 bit Update Inte
                                                            rrupt Enable
  488 00000000         ;-------------------------------------------------------
                       -------------------------
  489 00000000 40000410 
                       TIM3_SR EQU              0x40000410  ; STATUS
  490 00000000         ;-------------------------------------------------------
                       -------------------------
  491 00000000 40000414 
                       TIM3_EGR
                               EQU              0x40000414  ; EVENT GENERATION



ARM Macro Assembler    Page 20 


  492 00000000         ;-------------------------------------------------------
                       -------------------------
  493 00000000 40000418 
                       TIM3_CCMR1
                               EQU              0x40000418  ;  
  494 00000000         ;-------------------------------------------------------
                       -------------------------
  495 00000000 4000041C 
                       TIM3_CCMR2
                               EQU              0x4000041C  ;
  496 00000000         ;-------------------------------------------------------
                       -------------------------
  497 00000000 40000420 
                       TIM3_CCER
                               EQU              0x40000420  ; CAPTURE/COMPARE E
                                                            NABLE
  498 00000000         ;-------------------------------------------------------
                       -------------------------
  499 00000000 40000424 
                       TIM3_CNT
                               EQU              0x40000424  ; COUNTER
  500 00000000         ;-------------------------------------------------------
                       -------------------------
  501 00000000 40000428 
                       TIM3_PSC
                               EQU              0x40000428  ; PRESCALER
  502 00000000         ;-------------------------------------------------------
                       -------------------------
  503 00000000 4000042C 
                       TIM3_ARR
                               EQU              0x4000042C  ; AUTO RELOAD
  504 00000000         ;-------------------------------------------------------
                       -------------------------
  505 00000000 40000430 
                       TIM3_RCR
                               EQU              0x40000430  ; REPETITION
  506 00000000         ;-------------------------------------------------------
                       -------------------------
  507 00000000 40000434 
                       TIM3_CCR1
                               EQU              0x40000434  ; COMPARE/CAPTURE
  508 00000000         ;-------------------------------------------------------
                       -------------------------
  509 00000000 40000438 
                       TIM3_CCR2
                               EQU              0x40000438  ; COMPARE/CAPTURE
  510 00000000         ;-------------------------------------------------------
                       -------------------------
  511 00000000 4000043C 
                       TIM3_CCR3
                               EQU              0x4000043C  ; COMPARE/CAPTURE
  512 00000000         ;-------------------------------------------------------
                       -------------------------
  513 00000000 40000440 
                       TIM3_CCR4
                               EQU              0x40000440  ; COMPARE/CAPTURE
  514 00000000         ;-------------------------------------------------------
                       -------------------------
  515 00000000 40000444 



ARM Macro Assembler    Page 21 


                       TIM3_BDTR
                               EQU              0x40000444  ; BREAK AND DEAD-TI
                                                            ME
  516 00000000         ;-------------------------------------------------------
                       -------------------------
  517 00000000 40000448 
                       TIM3_DCR
                               EQU              0x40000448  ; DMA CONTROL
  518 00000000         ;-------------------------------------------------------
                       -------------------------
  519 00000000 4000044C 
                       TIM3_DMAR
                               EQU              0x4000044C  ; DMA ADDRESS FOR F
                                                            ULL TRANSFER
  520 00000000         ;-------------------------------------------------------
                       -------------------------
  521 00000000         
  522 00000000         ;*******************************************************
                       *************************
  523 00000000         ;*       TIM4         *
  524 00000000         ;*******************************************************
                       *************************
  525 00000000         ;TIM4 Registers   
  526 00000000         ;-------------------------------------------------------
                       -------------------------
  527 00000000 40000800 
                       TIM4_CR1
                               EQU              0x40000800  ; CONTROL 1 
  528 00000000         ;TIM4_CR1 bits
  529 00000000 42010010 
                       DIR_T4  EQU              0x42010010  ; 4 bit DIRECTION
  530 00000000 4201000C 
                       OPM_T4  EQU              0x4201000C  ; 3 bit ONE PULSE M
                                                            ODE
  531 00000000 42010008 
                       URS_T4  EQU              0x42010008  ; 2 bit Update Requ
                                                            est Source
  532 00000000 42010004 
                       UDIS_T4 EQU              0x42010004  ; 1 bit Update Disa
                                                            ble
  533 00000000 42010000 
                       CEN_T4  EQU              0x42010000  ; 0 bit Counter Ena
                                                            ble
  534 00000000         ;-------------------------------------------------------
                       -------------------------
  535 00000000 40000804 
                       TIM4_CR2
                               EQU              0x40000804  ; CONTROL 2
  536 00000000         ;-------------------------------------------------------
                       -------------------------
  537 00000000 40000808 
                       TIM4_SMCR
                               EQU              0x40000808  ; SLAVE MODE CONTRO
                                                            L
  538 00000000         ;-------------------------------------------------------
                       -------------------------
  539 00000000 4000080C 
                       TIM4_DIER
                               EQU              0x4000080C  ; 



ARM Macro Assembler    Page 22 


  540 00000000         ;TIM4_DIER bits
  541 00000000 42010198 
                       TIE_T4  EQU              0x42010198  ; 6 bit Trigger Int
                                                            errupt Enable
  542 00000000 42010190 
                       CC4IE_T4
                               EQU              0x42010190  ; 4 bit Capture/Com
                                                            pare Interrupt Enab
                                                            le
  543 00000000 4201018C 
                       CC3IE_T4
                               EQU              0x4201018C  ; 3 bit Capture/Com
                                                            pare Interrupt Enab
                                                            le
  544 00000000 42010188 
                       CC2IE_T4
                               EQU              0x42010188  ; 2 bit Capture/Com
                                                            pare Interrupt Enab
                                                            le
  545 00000000 42010184 
                       CC1IE_T4
                               EQU              0x42010184  ; 1 bit Capture/Com
                                                            pare Interrupt Enab
                                                            le
  546 00000000 42010180 
                       UIE_T4  EQU              0x42010180  ; 0 bit Update Inte
                                                            rrupt Enable
  547 00000000         ;-------------------------------------------------------
                       -------------------------
  548 00000000 40000810 
                       TIM4_SR EQU              0x40000810  ; STATUS
  549 00000000         ;-------------------------------------------------------
                       -------------------------
  550 00000000 40000814 
                       TIM4_EGR
                               EQU              0x40000814  ; EVENT GENERATION
  551 00000000         ;-------------------------------------------------------
                       -------------------------
  552 00000000 40000818 
                       TIM4_CCMR1
                               EQU              0x40000818  ;  
  553 00000000         ;-------------------------------------------------------
                       -------------------------
  554 00000000 4000081C 
                       TIM4_CCMR2
                               EQU              0x4000081C  ;
  555 00000000         ;-------------------------------------------------------
                       -------------------------
  556 00000000 40000820 
                       TIM4_CCER
                               EQU              0x40000820  ; CAPTURE/COMPARE E
                                                            NABLE
  557 00000000         ;-------------------------------------------------------
                       -------------------------
  558 00000000 40000824 
                       TIM4_CNT
                               EQU              0x40000824  ; COUNTER
  559 00000000         ;-------------------------------------------------------
                       -------------------------



ARM Macro Assembler    Page 23 


  560 00000000 40000828 
                       TIM4_PSC
                               EQU              0x40000828  ; PRESCALER
  561 00000000         ;-------------------------------------------------------
                       -------------------------
  562 00000000 4000082C 
                       TIM4_ARR
                               EQU              0x4000082C  ; AUTO RELOAD
  563 00000000         ;-------------------------------------------------------
                       -------------------------
  564 00000000 40000830 
                       TIM4_RCR
                               EQU              0x40000830  ; REPETITION
  565 00000000         ;-------------------------------------------------------
                       -------------------------
  566 00000000 40000834 
                       TIM4_CCR1
                               EQU              0x40000834  ; COMPARE/CAPTURE
  567 00000000         ;-------------------------------------------------------
                       -------------------------
  568 00000000 40000838 
                       TIM4_CCR2
                               EQU              0x40000838  ; COMPARE/CAPTURE
  569 00000000         ;-------------------------------------------------------
                       -------------------------
  570 00000000 4000083C 
                       TIM4_CCR3
                               EQU              0x4000083C  ; COMPARE/CAPTURE
  571 00000000         ;-------------------------------------------------------
                       -------------------------
  572 00000000 40000840 
                       TIM4_CCR4
                               EQU              0x40000840  ; COMPARE/CAPTURE
  573 00000000         ;-------------------------------------------------------
                       -------------------------
  574 00000000 40000844 
                       TIM4_BDTR
                               EQU              0x40000844  ; BREAK AND DEAD-TI
                                                            ME
  575 00000000         ;-------------------------------------------------------
                       -------------------------
  576 00000000 40000848 
                       TIM4_DCR
                               EQU              0x40000848  ; DMA CONTROL
  577 00000000         ;-------------------------------------------------------
                       -------------------------
  578 00000000 4000084C 
                       TIM4_DMAR
                               EQU              0x4000084C  ; DMA ADDRESS FOR F
                                                            ULL TRANSFER
  579 00000000         ;-------------------------------------------------------
                       -------------------------
  580 00000000         
  581 00000000         
  582 00000000         ;*******************************************************
                       *************************
  583 00000000         ;*       EXTI         *
  584 00000000         ;*******************************************************
                       *************************



ARM Macro Assembler    Page 24 


  585 00000000         ;EXTI Registers   
  586 00000000         ;-------------------------------------------------------
                       -------------------------
  587 00000000 40010400 
                       EXTI_IMR
                               EQU              0x40010400  ;
  588 00000000         ;-------------------------------------------------------
                       -------------------------
  589 00000000 40010404 
                       EXTI_EMR
                               EQU              0x40010404
  590 00000000         ;-------------------------------------------------------
                       -------------------------
  591 00000000 40010408 
                       EXTI_RTSR
                               EQU              0x40010408
  592 00000000         ;-------------------------------------------------------
                       -------------------------
  593 00000000 4001040C 
                       EXTI_FTSR
                               EQU              0x4001040C
  594 00000000         ;-------------------------------------------------------
                       -------------------------
  595 00000000 40010410 
                       EXTI_SWIER
                               EQU              0x40010410
  596 00000000         ;-------------------------------------------------------
                       -------------------------
  597 00000000 40010414 
                       EXTI_PR EQU              0x40010414
  598 00000000         ;-------------------------------------------------------
                       -------------------------
  599 00000000         
  600 00000000         
  601 00000000         
  602 00000000         ;*******************************************************
                       *************************
  603 00000000         ;*       NVIC         *
  604 00000000         ;*******************************************************
                       *************************
  605 00000000         ;NVIC Registers   
  606 00000000         ;-------------------------------------------------------
                       -------------------------
  607 00000000 E000ED04 
                       NVIC_ICSR
                               EQU              0xE000ED04  ; Interrupt Control
                                                             State Register
  608 00000000         ;-------------------------------------------------------
                       -------------------------
  609 00000000 E000ED08 
                       NVIC_VTOR
                               EQU              0xE000ED08  ; Vector Table Offs
                                                            et Register    
  610 00000000         ;-------------------------------------------------------
                       -------------------------
  611 00000000 E000ED0C 
                       NVIC_AIRCR
                               EQU              0xE000ED0C  ; Application Inter
                                                            rupt and Reset Cont



ARM Macro Assembler    Page 25 


                                                            rol Register
  612 00000000         ;-------------------------------------------------------
                       -------------------------
  613 00000000 E000E100 
                       NVIC_ISER
                               EQU              0xE000E100  ; Interrupt Set-Ena
                                                            ble Register
  614 00000000         ;-------------------------------------------------------
                       -------------------------
  615 00000000 E000E180 
                       NVIC_ICER
                               EQU              0xE000E180  ; Interrupt Clear-E
                                                            nable Register
  616 00000000         ;-------------------------------------------------------
                       -------------------------
  617 00000000 E000E200 
                       NVIC_ISPR
                               EQU              0xE000E200  ; Interrupt Set-Pen
                                                            ding Register
  618 00000000         ;-------------------------------------------------------
                       -------------------------
  619 00000000 E000E280 
                       NVIC_ICPR
                               EQU              0xE000E280  ; Interrupt Clear-P
                                                            ending Register
  620 00000000         ;-------------------------------------------------------
                       -------------------------
  621 00000000 E000E400 
                       NVIC_IPR
                               EQU              0xE000E400  ; Interrupt Priorit
                                                            y Register
  622 00000000         ;-------------------------------------------------------
                       -------------------------
  623 00000000         
  624 00000000         
  625 00000000         ;*******************************************************
                       *************************
  626 00000000         ;*       ADC         *
  627 00000000         ;*******************************************************
                       *************************
  628 00000000         ;ADC1 Registers   
  629 00000000         ;-------------------------------------------------------
                       -------------------------
  630 00000000 40012400 
                       ADC_SR  EQU              0x40012400  ;
  631 00000000         ;-------------------------------------------------------
                       -------------------------
  632 00000000 40012404 
                       ADC_CR1 EQU              0x40012404  ;
  633 00000000         ;-------------------------------------------------------
                       -------------------------
  634 00000000 40012408 
                       ADC_CR2 EQU              0x40012408  ;
  635 00000000         ;-------------------------------------------------------
                       -------------------------
  636 00000000 4001240C 
                       ADC_SMPR1
                               EQU              0x4001240C  ;
  637 00000000         ;-------------------------------------------------------



ARM Macro Assembler    Page 26 


                       -------------------------
  638 00000000 40012410 
                       ADC_SMPR2
                               EQU              0x40012410  ;
  639 00000000         ;-------------------------------------------------------
                       -------------------------
  640 00000000 40012414 
                       ADC_JOFR1
                               EQU              0x40012414  ;
  641 00000000         ;-------------------------------------------------------
                       -------------------------
  642 00000000 40012418 
                       ADC_JOFR2
                               EQU              0x40012418  ;
  643 00000000         ;-------------------------------------------------------
                       -------------------------
  644 00000000 4001241C 
                       ADC_JOFR3
                               EQU              0x4001241C  ;
  645 00000000         ;-------------------------------------------------------
                       -------------------------
  646 00000000 40012420 
                       ADC_JOFR4
                               EQU              0x40012420  ;
  647 00000000         ;-------------------------------------------------------
                       -------------------------
  648 00000000 40012424 
                       ADC_HTR EQU              0x40012424  ;
  649 00000000         ;-------------------------------------------------------
                       -------------------------
  650 00000000 40012428 
                       ADC_LTR EQU              0x40012428  ;
  651 00000000         ;-------------------------------------------------------
                       -------------------------
  652 00000000 4001242C 
                       ADC_SQR1
                               EQU              0x4001242C  ;
  653 00000000         ;-------------------------------------------------------
                       -------------------------
  654 00000000 40012430 
                       ADC_SQR2
                               EQU              0x40012430  ;
  655 00000000         ;-------------------------------------------------------
                       -------------------------
  656 00000000 40012434 
                       ADC_SQR3
                               EQU              0x40012434  ;
  657 00000000         ;-------------------------------------------------------
                       -------------------------
  658 00000000 40012438 
                       ADC_JSQR
                               EQU              0x40012438  ;
  659 00000000         ;-------------------------------------------------------
                       -------------------------
  660 00000000 4001243C 
                       ADC_JDR1
                               EQU              0x4001243C  ;
  661 00000000         ;-------------------------------------------------------
                       -------------------------



ARM Macro Assembler    Page 27 


  662 00000000 40012440 
                       ADC_JDR2
                               EQU              0x40012440  ;
  663 00000000         ;-------------------------------------------------------
                       -------------------------
  664 00000000 40012444 
                       ADC_JDR3
                               EQU              0x40012444  ;
  665 00000000         ;-------------------------------------------------------
                       -------------------------
  666 00000000 40012448 
                       ADC_JDR4
                               EQU              0x40012448  ;
  667 00000000         ;-------------------------------------------------------
                       -------------------------
  668 00000000 4001244C 
                       ADC_DR  EQU              0x4001244C  ;
  669 00000000         ;-------------------------------------------------------
                       -------------------------
  670 00000000         
  671 00000000                 END
   26 00000000         ; jsou zde definovany adresy pristupu do pameti (k regis
                       trum)
   27 00000000         
   28 00000000         ;+++++++++++++++++++++++++++++++++++++++++++++++++++++++
                       +++++++++++++++++++++++++++++++++++++++++++++          
   29 00000000 000003E0 
                       ONE_SECOND_CONST
                               EQU              0x3E0       ; neni to v zadnem 
                                                            pripade presna hodn
                                                            ota jedne sekundy, 
                                                            udelano zhruba
   30 00000000 0000000A 
                       DISPLAYABLE_MAX
                               EQU              0xA
   31 00000000 000000FC 
              00000060 
              000000DA 
              000000F2 
              00000066 
              000000B6 
              000000BF 
              000000E0 
              000000FE 
              000000F7 numbers_L
                               DCD              2_11111100, 2_01100000, 2_11011
010, 2_11110010, 2_01100110, 2_10110110, 2_10111111, 2_11100000, 2_11111110, 2_
11110111
   32 00000028         
   33 00000028 0D 0A 54 
              68 69 73 
              20 69 73 
              20 73 69 
              6D 70 6C 
              65 20 63 
              6F 75 6E 
              74 64 6F 
              77 6E 20 
              70 72 6F 



ARM Macro Assembler    Page 28 


              67 72 61 
              6D 2E 0D 
              0A 43 6F 
              6E 74 72 
              6F 6C 73 
              20 61 72 
              65 3A 09 
              27 2B 27 
              20 2D 20 
              41 64 64 
              69 6E 67 
              20 6F 6E 
              65 20 73 
              65 63 6F 
              6E 64 0D 
              0A 09 09 
              27 2D 27 
              20 2D 20 
              53 75 62 
              74 72 61 
              63 74 69 
              6E 67 20 
              6F 6E 65 
              20 73 65 
              63 6F 6E 
              64 0D 0A 
              09 09 27 
              20 27 20 
              2D 20 43 
              6F 6E 66 
              69 72 6D 
              69 6E 67 
              20 73 65 
              6C 65 63 
              74 69 6F 
              6E 0D 0A 
              09 09 27 
              73 27 20 
              2D 20 53 
              74 61 72 
              74 69 6E 
              67 20 63 
              6F 75 6E 
              74 64 6F 
              77 6E 0D 
              0A 09 09 
              27 68 27 
              20 2D 20 
              44 69 73 
              70 6C 61 
              79 20 68 
              65 6C 70 
              0A 0D 00 WELCOME_MESSAGE
                               DCB              "\r\nThis is simple countdown p
rogram.\r\nControls are:\t\'+\' - Adding one second\r\n\t\t\'-\' - Subtracting 
one second\r\n\t\t\' \' - Confirming selection\r\n\t\t\'s\' - Starting countdow
n\r\n\t\t\'h\' - Display help",0xA, 0xD, 0 
                                                            ; definovani konsta
                                                            nty retezce



ARM Macro Assembler    Page 29 


   34 000000E5 20 3A 73 
              79 6D 62 
              6F 6C 20 
              28 52 45 
              43 45 49 
              56 45 44 
              29 20 0A 
              0D 00    DATA_TEXT
                               DCB              " :symbol (RECEIVED) ",0xA, 0xD
, 0 
                                                            ;
   35 000000FC 43 6F 75 
              6E 74 64 
              6F 77 6E 
              20 53 54 
              41 52 54 
              45 44 0A 
              0D 00    START_MESSAGE
                               DCB              "Countdown STARTED",0xA, 0xD, 0
 
                                                            ;
   36 00000110 43 6F 75 
              6E 74 64 
              6F 77 6E 
              20 45 4E 
              44 45 44 
              0A 0D 00 END_MESSAGE
                               DCB              "Countdown ENDED",0xA, 0xD, 0 ;
                                                            
   37 00000122         
   38 00000122         
   39 00000122         
   40 00000122 00 00 00000006 
                       initial_counter_value
                               DCD              6
   41 00000128         ;+++++++++++++++++++++++++++++++++++++++++++++++++++++++
                       +++++++++++++++++++++++++++++++++++++++++++++          
   42 00000128         
   43 00000128         
   44 00000128                 EXPORT           __main      ; export navesti po
                                                            uzivaneho v jinem s
                                                            ouboru, zde konkret
                                                            ne
   45 00000128                 EXPORT           __use_two_region_memory ; jde o
                                                             navesti, ktere pou
                                                            ziva startup code S
                                                            TM32F10x.s
   46 00000128         
   47 00000128         __use_two_region_memory
   48 00000128         __main
   49 00000128         
   50 00000128                 ENTRY                        ; vstupni bod do ko
                                                            du, odtud se zacina
                                                             vykonavat program
   51 00000128         
   52 00000128         ;*******************************************************
                       ********************************************
   53 00000128         ;* Jmeno funkce  : MAIN
   54 00000128         ;* Popis   : Hlavni program + volani podprogramu nastave



ARM Macro Assembler    Page 30 


                       ni hodinoveho systemu a konfigurace
   55 00000128         ;*       pouzitych vyvodu procesoru 
   56 00000128         ;* Vstup   : Zadny
   57 00000128         ;* Vystup   : Zadny
   58 00000128         ;*******************************************************
                       ********************************************
   59 00000128         
   60 00000128         MAIN                                 ; MAIN navesti hlav
                                                            ni smycky programu 
                                                            
   61 00000128 F000 FA50       BL               RCC_CNF     ; Volani podprogram
                                                            u nastaveni hodinov
                                                            eho systemu proceso
                                                            ru
   62 0000012C         ; tj. skok na adresu s navestim RCC_CNF a ulozeni navrat
                       ove 
   63 0000012C         ; adresy do LR (Link Register)
   64 0000012C F000 FA89       BL               GPIO_CNF    ; Volani podprogram
                                                            u konfigurace vyvod
                                                            u procesoru
   65 00000130         ; tj. skok na adresu s navestim GPIO_CNF 
   66 00000130         ;*!* Poznamka pri pouziti volani podprogramu instrukci B
                       L nesmi
   67 00000130         ; byt v obsluze podprogramu tato instrukce jiz pouzita, 
                       nebot
   68 00000130         ; by doslo k prepsani LR a ztrate navratove adresy ->
   69 00000130         ; lze ale pouzit i jine instrukce (PUSH, POP) *!*
   70 00000130 F000 F93B       BL               USART_CNF   ; skok na podprogra
                                                            m nastaveni USART 
   71 00000134         
   72 00000134         
   73 00000134 4A87            LDR              R2, =GPIOC_ODR ; Kopie adresy b
                                                            rany C ODR do R2, G
                                                            PIOC_ODR je v soubo
                                                            ru INI.S   
   74 00000136         ; ODR - Output Data Register
   75 00000136 4D88            LDR              R5, =GPIOA_IDR ; Kopie adresy b
                                                            rany A IDR do R5, G
                                                            PIOA_IDR je v soubo
                                                            ru INI.S   
   76 00000138         ; IDR - Input Data Register
   77 00000138         
   78 00000138         
   79 00000138         
   80 00000138 4888            LDR              R0, =WELCOME_MESSAGE ; nacteni 
                                                            adresy retezce
   81 0000013A F000 F923       BL               TRAN_USART_TEXT ; vyslani texto
                                                            veho retezce
   82 0000013E         ;LOOP   
   83 0000013E         ;BL  REC_USART   ; prijem bajtu pres USART
   84 0000013E         
   85 0000013E         ;BL  TRAN_USART   ; vyslani bajtu pres USART
   86 0000013E         
   87 0000013E         ;LDR  R0, =DATA_TEXT  ; nacteni adresy retezce
   88 0000013E         ;BL  TRAN_USART_TEXT  ; vyslani textoveho retezce (potvr
                       zovaci hlaska)
   89 0000013E         
   90 0000013E         ;B  LOOP      
   91 0000013E         



ARM Macro Assembler    Page 31 


   92 0000013E         
   93 0000013E F8DF 0220       LDR.W            R0, =INIT_VALUE_L
   94 00000142 F04F 0105       MOV              R1, #5
   95 00000146 7001            STRB             R1, [R0]
   96 00000148         
   97 00000148 F8DF 0218       LDR.W            R0, =INIT_VALUE_H
   98 0000014C F04F 0101       MOV              R1, #1
   99 00000150 7001            STRB             R1, [R0]
  100 00000152         
  101 00000152         START
  102 00000152 7803            LDRB             R3, [R0]
  103 00000154 F04F 0400       MOV              R4,#0       ; Vlozeni 0 do R4, 
                                                            nulovani citace (so
                                                            ftwarový citac regi
                                                            str R4)
  104 00000158         
  105 00000158 F04F 0100       MOV              R1, #0x0000
  106 0000015C 6011            STR              R1, [R2]    ; Zhasnuti obou dio
                                                            d
  107 0000015E         
  108 0000015E F8DF 0204       LDR.W            R0, =INIT_VALUE_H
  109 00000162 7801            LDRB             R1, [R0]
  110 00000164 F8DF 0200       LDR.W            R0, =CURR_VALUE_H
  111 00000168 7001            STRB             R1, [R0]
  112 0000016A         
  113 0000016A F8DF 01F4       LDR.W            R0, =INIT_VALUE_L
  114 0000016E 7801            LDRB             R1, [R0]
  115 00000170 F8DF 01F8       LDR.W            R0, =CURR_VALUE_L
  116 00000174 7001            STRB             R1, [R0]
  117 00000176 F000 F9C8       BL               UPDATE_DISPLAY
  118 0000017A         
  119 0000017A         INIT_LOOP
  120 0000017A F000 F872       BL               REC_USART   ; prijem bajtu pres
                                                             USART
  121 0000017E         
  122 0000017E F000 F99B       BL               HANDLE_ADD_BUTTON
  123 00000182         
  124 00000182 F000 F970       BL               HANDLE_SUB_BUTTON
  125 00000186         
  126 00000186 F000 F94F       BL               HANDLE_ENTER_BUTTON
  127 0000018A         
  128 0000018A 4D79            LDR              R5, =GPIOB_ODR
  129 0000018C         
  130 0000018C F000 F9BD       BL               UPDATE_DISPLAY
  131 00000190         ;ORR  R1, R1, #0x300
  132 00000190         ;MOV  R0, #0x300
  133 00000190         ;BIC  R1, R1, R0;
  134 00000190         ;MOV  R0, #0x300
  135 00000190         ;ORR  R1, R1, R0
  136 00000190         ;STR  R1, [R5]
  137 00000190         
  138 00000190         ;BL   UPDATE_DISPLAY
  139 00000190         
  140 00000190         ; Testovani stisku tlacitka
  141 00000190 4D71            LDR              R5, =GPIOA_IDR
  142 00000192 6829            LDR              R1, [R5]
  143 00000194 F011 0F01       TST              R1, #0x1
  144 00000198         
  145 00000198 D0EF            BEQ              INIT_LOOP



ARM Macro Assembler    Page 32 


  146 0000019A         
  147 0000019A F44F 7180       MOV              R1, #0x0100
  148 0000019E 6011            STR              R1, [R2]
  149 000001A0         
  150 000001A0         ; Delay nastaveny na 1ms pro vyreseni odskoku tlacitka
  151 000001A0 F04F 0001       MOV              R0, #1
  152 000001A4 F000 F9B1       BL               UPDATE_DISPLAY
  153 000001A8         
  154 000001A8         ; Po uplynuti delay opetovne testovani stisku tlacitka
  155 000001A8 6829            LDR              R1, [R5]
  156 000001AA F011 0F01       TST              R1, #0x1
  157 000001AE         
  158 000001AE D0D0            BEQ              START
  159 000001B0         
  160 000001B0         TEST_REALEASE_OF_BUTTON
  161 000001B0         
  162 000001B0 F000 F9AB       BL               UPDATE_DISPLAY
  163 000001B4         
  164 000001B4         ; Test uvolneni tlacitka
  165 000001B4 6829            LDR              R1, [R5]
  166 000001B6 F011 0F01       TST              R1, #0x1
  167 000001BA         
  168 000001BA         
  169 000001BA         
  170 000001BA D1F9            BNE              TEST_REALEASE_OF_BUTTON
  171 000001BC         
  172 000001BC         COUNTDOWN_INIT
  173 000001BC 486D            LDR              R0, =START_MESSAGE ; nacteni ad
                                                            resy retezce
  174 000001BE F000 F8E1       BL               TRAN_USART_TEXT
  175 000001C2         
  176 000001C2 4A64            LDR              R2, =GPIOC_ODR
  177 000001C4         ; Rozsviceni svetla
  178 000001C4 F44F 7140       MOV              R1, #0x0300
  179 000001C8 6011            STR              R1, [R2]
  180 000001CA F04F 0601       MOV              R6, #0x1
  181 000001CE         
  182 000001CE F8DF 0190       LDR.W            R0, =INIT_VALUE_L
  183 000001D2 7803            LDRB             R3, [R0]
  184 000001D4 F8DF 0194       LDR.W            R0, =CURR_VALUE_L
  185 000001D8 7003            STRB             R3, [R0]
  186 000001DA         
  187 000001DA F8DF 0188       LDR.W            R0, =INIT_VALUE_H
  188 000001DE 7801            LDRB             R1, [R0]
  189 000001E0 F8DF 0184       LDR.W            R0, =CURR_VALUE_H
  190 000001E4 7001            STRB             R1, [R0]
  191 000001E6         
  192 000001E6 2900            CMP              R1, #0
  193 000001E8 D105            BNE              NOT_ZERO
  194 000001EA 2B00            CMP              R3, #0
  195 000001EC D103            BNE              NOT_ZERO
  196 000001EE 4862            LDR              R0, =END_MESSAGE
  197 000001F0 F000 F8C8       BL               TRAN_USART_TEXT
  198 000001F4 E7AD            B                START
  199 000001F6         NOT_ZERO
  200 000001F6         
  201 000001F6 F000 F988       BL               UPDATE_DISPLAY
  202 000001FA         
  203 000001FA         



ARM Macro Assembler    Page 33 


  204 000001FA         COUNTDOWN
  205 000001FA         ; Test tlacitka
  206 000001FA 6829            LDR              R1, [R5]
  207 000001FC F011 0F01       TST              R1, #0x1
  208 00000200         
  209 00000200 D10B            BNE              BUTTON_PRESSED
  210 00000202         
  211 00000202 F000 F982       BL               UPDATE_DISPLAY
  212 00000206         
  213 00000206         ; Inkrementace pocitadla a pripadny skok, pokud jeste ne
                       byla napocitana sekunda
  214 00000206 F104 0401       ADD              R4,R4,#0x1
  215 0000020A F5B4 7F78       CMP              R4, #ONE_SECOND_CONST
  216 0000020E DB03            BLT              NOT_YET_SECOND
  217 00000210         
  218 00000210         ;Odecteni citace
  219 00000210 F000 F8D8       BL               HANDLE_COUNTDOWN
  220 00000214         
  221 00000214         CONTINUE_COUNTING
  222 00000214         ;LDR.W R1, =CURR_VALUE_L
  223 00000214         ;STRB R3, [R1]
  224 00000214         ;BL   UPDATE_DISPLAY
  225 00000214 F04F 0400       MOV              R4, #0
  226 00000218         NOT_YET_SECOND
  227 00000218 E7EF            B                COUNTDOWN
  228 0000021A         
  229 0000021A         BUTTON_PRESSED
  230 0000021A         ; Test tlacitka
  231 0000021A 6829            LDR              R1, [R5]
  232 0000021C F011 0F01       TST              R1, #0x1
  233 00000220         
  234 00000220 D10D            BNE              INIT_SKIP
  235 00000222         
  236 00000222 F8DF 013C       LDR.W            R0, =INIT_VALUE_L
  237 00000226 7803            LDRB             R3, [R0]
  238 00000228 F8DF 0140       LDR.W            R0, =CURR_VALUE_L
  239 0000022C 7003            STRB             R3, [R0]
  240 0000022E F000 F96C       BL               UPDATE_DISPLAY
  241 00000232 F04F 0400       MOV              R4, #0x0
  242 00000236 F44F 7140       MOV              R1, #0x0300
  243 0000023A         
  244 0000023A 6011            STR              R1, [R2]
  245 0000023C E7DD            B                COUNTDOWN
  246 0000023E         INIT_SKIP
  247 0000023E         ; Dekrementace pocitadla a pripadny skok, pokud jeste ne
                       byla napocitana sekunda
  248 0000023E F000 F964       BL               UPDATE_DISPLAY
  249 00000242         
  250 00000242 F104 0401       ADD              R4,R4,#0x1
  251 00000246 F5B4 7F78       CMP              R4, #ONE_SECOND_CONST
  252 0000024A         
  253 0000024A DB09            BLT              NOT_YET_SECOND_1
  254 0000024C         
  255 0000024C 1E5B            SUBS             R3, R3, #0x1
  256 0000024E D100            BNE              CONTINUE_COUNTING_1
  257 00000250         
  258 00000250 E77F            B                START
  259 00000252         CONTINUE_COUNTING_1
  260 00000252         



ARM Macro Assembler    Page 34 


  261 00000252 F8DF 1118       LDR.W            R1, =CURR_VALUE_L
  262 00000256 700B            STRB             R3, [R1]
  263 00000258 F000 F957       BL               UPDATE_DISPLAY
  264 0000025C F04F 0400       MOV              R4, #0
  265 00000260         NOT_YET_SECOND_1
  266 00000260 E7DB            B                BUTTON_PRESSED
  267 00000262         
  268 00000262         ;*******************************************************
                       **************************************
  269 00000262         ;* Jmeno funkce  : REC_USATR
  270 00000262         ;* Popis   : Podprogram pro prijem dat z USART
  271 00000262         ;* Vstup   : Zadny
  272 00000262         ;* Vystup   : R0 = prijaty bajt
  273 00000262         ;* Komentar   : Je prijat jeden bajt pomoci USART1  
  274 00000262         ;*******************************************************
                       **************************************
  275 00000262 B506    REC_USART
                               PUSH             {R1, R2, LR}
  276 00000264         ;cekani na prijem bajtu
  277 00000264 4945            LDR              R1, =USART_SR
  278 00000266 680A            LDR              R2,[R1]
  279 00000268 F012 0F20       TST              R2, #0x20   ; test naplneni cte
                                                            ciho bufferu
  280 0000026C D071            BEQ              NO_RDY_REC  ; skok pri nenaplne
                                                            nem bufferu
  281 0000026E 4944            LDR              R1, =USART_DR
  282 00000270 6808            LDR              R0, [R1]    ; precteny bajt v R
                                                            O
  283 00000272         
  284 00000272         
  285 00000272         
  286 00000272 F8DF 60F8       LDR.W            R6, =CURR_VALUE_L
  287 00000276 7833            LDRB             R3, [R6]
  288 00000278 F8DF 60EC       LDR.W            R6, =CURR_VALUE_H
  289 0000027C 7834            LDRB             R4, [R6]
  290 0000027E         
  291 0000027E 282B            CMP              R0, #0x2B
  292 00000280 D11A            BNE              NOT_PLUS
  293 00000282         
  294 00000282 2B09            CMP              R3, #9
  295 00000284 D105            BNE              NO_ADD_LOGIC_U
  296 00000286 2C09            CMP              R4, #9
  297 00000288 D005            BEQ              ADD_OVERFLOW_U
  298 0000028A F104 0401       ADD              R4, #1
  299 0000028E F04F 33FF       MOV              R3, #-1
  300 00000292         
  301 00000292         NO_ADD_LOGIC_U
  302 00000292 F103 0301       ADD              R3, #1
  303 00000296         ADD_OVERFLOW_U
  304 00000296 F000 F87E       BL               TRAN_USART
  305 0000029A 4620            MOV              R0, R4
  306 0000029C F100 0030       ADD              R0, #0x30
  307 000002A0 F000 F879       BL               TRAN_USART
  308 000002A4 4618            MOV              R0, R3
  309 000002A6 F100 0030       ADD              R0, #0x30
  310 000002AA F000 F874       BL               TRAN_USART
  311 000002AE F04F 000D       MOV              R0, #0xD
  312 000002B2 F000 F870       BL               TRAN_USART
  313 000002B6         



ARM Macro Assembler    Page 35 


  314 000002B6 E044            B                BREAK
  315 000002B8         NOT_PLUS
  316 000002B8 282D            CMP              R0, #0x2D
  317 000002BA D11A            BNE              NOT_MINUS
  318 000002BC         
  319 000002BC 2B00            CMP              R3, #0
  320 000002BE D105            BNE              NO_SUB_LOGIC_U
  321 000002C0 2C00            CMP              R4, #0
  322 000002C2 D005            BEQ              SUB_OVERFLOW_U
  323 000002C4 F1A4 0401       SUB              R4, #1
  324 000002C8 F04F 030A       MOV              R3, #10
  325 000002CC         
  326 000002CC         NO_SUB_LOGIC_U
  327 000002CC F1A3 0301       SUB              R3, R3, #1
  328 000002D0         SUB_OVERFLOW_U
  329 000002D0 F000 F861       BL               TRAN_USART
  330 000002D4 4620            MOV              R0, R4
  331 000002D6 F100 0030       ADD              R0, #0x30
  332 000002DA F000 F85C       BL               TRAN_USART
  333 000002DE 4618            MOV              R0, R3
  334 000002E0 F100 0030       ADD              R0, #0x30
  335 000002E4 F000 F857       BL               TRAN_USART
  336 000002E8 F04F 000D       MOV              R0, #0xD
  337 000002EC F000 F853       BL               TRAN_USART
  338 000002F0         
  339 000002F0 E027            B                BREAK
  340 000002F2         NOT_MINUS
  341 000002F2         
  342 000002F2 2820            CMP              R0, #0x20
  343 000002F4 D11C            BNE              NOT_SPACE
  344 000002F6         
  345 000002F6 F000 F84E       BL               TRAN_USART
  346 000002FA 4620            MOV              R0, R4
  347 000002FC F100 0030       ADD              R0, #0x30
  348 00000300 F000 F849       BL               TRAN_USART
  349 00000304 4618            MOV              R0, R3
  350 00000306 F100 0030       ADD              R0, #0x30
  351 0000030A F000 F844       BL               TRAN_USART
  352 0000030E F04F 000D       MOV              R0, #0xD
  353 00000312 F000 F840       BL               TRAN_USART
  354 00000316         
  355 00000316 F8DF 6054       LDR.W            R6, =CURR_VALUE_L
  356 0000031A 7833            LDRB             R3, [R6]
  357 0000031C F8DF 6040       LDR.W            R6, =INIT_VALUE_L
  358 00000320 7033            STRB             R3, [R6]
  359 00000322         
  360 00000322 F8DF 6044       LDR.W            R6, =CURR_VALUE_H
  361 00000326 7834            LDRB             R4, [R6]
  362 00000328 F8DF 6038       LDR.W            R6, =INIT_VALUE_H
  363 0000032C 7034            STRB             R4, [R6]
  364 0000032E         
  365 0000032E E00E            B                BREAK_AFTER_SAVE
  366 00000330         NOT_SPACE
  367 00000330         
  368 00000330 2873            CMP              R0, #0x73
  369 00000332 D101            BNE              NOT_s
  370 00000334         
  371 00000334 BC06            POP              {R1, R2}
  372 00000336         



ARM Macro Assembler    Page 36 


  373 00000336 E741            B                COUNTDOWN_INIT
  374 00000338         NOT_s
  375 00000338 2868            CMP              R0, #0x68
  376 0000033A D102            BNE              NOT_h
  377 0000033C 4807            LDR              R0, =WELCOME_MESSAGE
  378 0000033E F000 F821       BL               TRAN_USART_TEXT
  379 00000342         
  380 00000342         NOT_h
  381 00000342         
  382 00000342         
  383 00000342         
  384 00000342         
  385 00000342         BREAK
  386 00000342 F8DF 6028       LDR.W            R6, =CURR_VALUE_L
  387 00000346 7033            STRB             R3, [R6]
  388 00000348 F8DF 601C       LDR.W            R6, =CURR_VALUE_H
  389 0000034C 7034            STRB             R4, [R6]
  390 0000034E         BREAK_AFTER_SAVE
  391 0000034E F000 F8DC       BL               UPDATE_DISPLAY
  392 00000352         NO_RDY_REC
  393 00000352 BD06            POP              {R1, R2, PC}
  394 00000354         
  395 00000354         ;*******************************************************
                       **************************************
  396 00000354         ;* Jmeno funkce  : TRAN_USART_TEXT
  397 00000354         ;* Popis   : Podprogram pro vyslani retezce dat pres USA
                       RT1
  398 00000354         ;* Vstup   : R0 = adresa retezce
  399 00000354         ;* Vystup   : Zadny
  400 00000354         ;* Komentar   : Je vyslana skupina bajtu az po zarazku (
                        0 )  
  401 00000354         ;*******************************************************
                       **************************************
  402 00000354 4001100C 
              40010808 
              00000000 
              00000000 
              00000000 
              00000000 
              00000000 
              40010C0C 
              00000000 
              00000000 
              40013800 
              40013804         LTORG
  403 00000384 B506    TRAN_USART_TEXT
                               PUSH             {R1, R2, LR}
  404 00000386 4601            MOV              R1, R0
  405 00000388         NEXT_B
  406 00000388 F811 0B01       LDRB             R0,[R1],#1  ; nacteni znaku, a 
                                                            inkrementace ukazat
                                                            ele
  407 0000038C B110            CBZ              R0, END_SEND ; je-li znak null,
                                                             konec
  408 0000038E F000 F802       BL               TRAN_USART  ; vyslani znaku pre
                                                            s USART
  409 00000392 E7F9            B                NEXT_B      ; dalsi znak (bajt)
                                                            
  410 00000394         END_SEND



ARM Macro Assembler    Page 37 


  411 00000394 BD06            POP              {R1, R2, PC}
  412 00000396         
  413 00000396         ;*******************************************************
                       **************************************
  414 00000396         ;* Jmeno funkce  : TRAN_USART
  415 00000396         ;* Popis   : Podprogram pro vyslani bajtu pres USART1
  416 00000396         ;* Vstup   : R0 = bajt k vyslani
  417 00000396         ;* Vystup   : Zadny
  418 00000396         ;* Komentar   : Je vyslana skupina bajtu az po zarazku (
                        0 )  
  419 00000396         ;*******************************************************
                       **************************************
  420 00000396 B506    TRAN_USART
                               PUSH             {R1, R2, LR}
  421 00000398         NO_RDY_TRAN
  422 00000398 4984            LDR              R1, =USART_SR
  423 0000039A 680A            LDR              R2, [R1]
  424 0000039C F012 0F40       TST              R2, #0x40   ; test vyprazdeni v
                                                            ysilaciho bufferu 
  425 000003A0 D0FA            BEQ              NO_RDY_TRAN ; skok pri nevypraz
                                                            dnenem bufferu
  426 000003A2 4983            LDR              R1, =USART_DR
  427 000003A4 7008            STRB             R0, [R1]    ; ulozeni bajtu do 
                                                            vysilaciho registru
                                                            
  428 000003A6 780A            LDRB             R2, [R1]    ; prazdne vycteni D
                                                            R a nulovani prizna
                                                            ku
  429 000003A8         
  430 000003A8 BD06            POP              {R1, R2, PC}
  431 000003AA         
  432 000003AA         ;*******************************************************
                       **************************************
  433 000003AA         ;* Jmeno funkce  : UART_CNF
  434 000003AA         ;* Popis   : Konfigurace USART1 pro prijem i vysilani
  435 000003AA         ;* Vstup   : Zadny
  436 000003AA         ;* Vystup   : Zadny
  437 000003AA         ;* Komentar   : Nastaveni USART1 s prenosovou rychlosti 
                       9600Bd
  438 000003AA         ;*      (1 start bit, 8 data bit , 1 stop bit)  
  439 000003AA         ;*******************************************************
                       **************************************     
  440 000003AA B500    USART_CNF
                               PUSH             {LR}
  441 000003AC         
  442 000003AC 4881            LDR              R0, =USART_BRR 
                                                            ; BAUD RATE registr
                                                            
  443 000003AE F640 11C4       LDR              R1, =0x009C4 ; RATE 9600Bd (156
                                                            .25 PRO 24MHz), 156
                                                             = 0x9C0, 0,25 = 0x
                                                            4 
  444 000003B2 6001            STR              R1, [R0]
  445 000003B4         
  446 000003B4 4880            LDR              R0, =USART_CR1 
                                                            ; control registr
  447 000003B6 6801            LDR              R1, [R0]
  448 000003B8 F242 020C       LDR              R2, =0x200C ; USART povolen (UE
                                                             = 1), vysilani i p



ARM Macro Assembler    Page 38 


                                                            rijem povoleno (TE 
                                                            = 1),RE = 1
  449 000003BC EA41 0102       ORR              R1, R1, R2
  450 000003C0 6001            STR              R1, [R0]
  451 000003C2         
  452 000003C2 BD00            POP              {PC}
  453 000003C4         
  454 000003C4         ;*******************************************************
                       ********************************************
  455 000003C4         ;* Jmeno funkce  : HANDLE_COUNTDOWN
  456 000003C4         ;* Popis   : Resi odpocet, odecte jednu sekundu
  457 000003C4         ;* Vstup   : Zadny
  458 000003C4         ;* Vystup   : Zadny 
  459 000003C4         ;*******************************************************
                       ******************************************* 
  460 000003C4         HANDLE_COUNTDOWN
  461 000003C4 B549            PUSH             {R0,R3,R6,LR}
  462 000003C6         
  463 000003C6 F85F 605C       LDR.W            R6, =CURR_VALUE_L
  464 000003CA 7833            LDRB             R3, [R6]
  465 000003CC F85F 6068       LDR.W            R6, =CURR_VALUE_H
  466 000003D0 7834            LDRB             R4, [R6]
  467 000003D2         
  468 000003D2 2C00            CMP              R4, #0
  469 000003D4 D105            BNE              NOT_END
  470 000003D6 2B01            CMP              R3, #1
  471 000003D8 D103            BNE              NOT_END
  472 000003DA 4878            LDR              R0, =END_MESSAGE
  473 000003DC F7FF FFD2       BL               TRAN_USART_TEXT
  474 000003E0 E6B7            B                START
  475 000003E2         NOT_END
  476 000003E2 2B00            CMP              R3, #0
  477 000003E4 D103            BNE              NO_HANDLE_LOGIC
  478 000003E6 F1A4 0401       SUB              R4, #1
  479 000003EA F04F 030A       MOV              R3, #10
  480 000003EE         
  481 000003EE         NO_HANDLE_LOGIC
  482 000003EE F1A3 0301       SUB              R3, R3, #1
  483 000003F2 F85F 6088       LDR.W            R6, =CURR_VALUE_L
  484 000003F6 7033            STRB             R3, [R6]
  485 000003F8 F85F 6094       LDR.W            R6, =CURR_VALUE_H
  486 000003FC 7034            STRB             R4, [R6]
  487 000003FE         
  488 000003FE F04F 0020       MOV              R0, #0x20
  489 00000402 F7FF FFC8       BL               TRAN_USART
  490 00000406 4620            MOV              R0, R4
  491 00000408 F100 0030       ADD              R0, #0x30
  492 0000040C F7FF FFC3       BL               TRAN_USART
  493 00000410 4618            MOV              R0, R3
  494 00000412 F100 0030       ADD              R0, #0x30
  495 00000416 F7FF FFBE       BL               TRAN_USART
  496 0000041A F04F 000D       MOV              R0, #0xD
  497 0000041E F7FF FFBA       BL               TRAN_USART
  498 00000422         
  499 00000422 F000 F872       BL               UPDATE_DISPLAY
  500 00000426         
  501 00000426 BD49            POP              {R0,R3,R6,PC}
  502 00000428         ;*******************************************************
                       ********************************************



ARM Macro Assembler    Page 39 


  503 00000428         ;* Jmeno funkce  : HANDLE_ENTER_BUTTON
  504 00000428         ;* Popis   : Potvrzuje vybranou hodnotu
  505 00000428         ;* Vstup   : Zadny
  506 00000428         ;* Vystup   : Zadny 
  507 00000428         ;*******************************************************
                       ******************************************* 
  508 00000428         HANDLE_ENTER_BUTTON
  509 00000428 B549            PUSH             {R0,R3,R6,LR}
  510 0000042A         
  511 0000042A 4865            LDR              R0, =GPIOA_IDR
  512 0000042C         
  513 0000042C 6806            LDR              R6, [R0]
  514 0000042E F416 6F00       TST              R6, #0x800
  515 00000432         
  516 00000432 D017            BEQ              SKIP_ENTER
  517 00000434 F000 F95E       BL               DELAY
  518 00000438         
  519 00000438 6806            LDR              R6, [R0]
  520 0000043A F416 6F00       TST              R6, #0x800
  521 0000043E         
  522 0000043E D011            BEQ              SKIP_ENTER
  523 00000440         
  524 00000440 F85F 60D8       LDR.W            R6, =CURR_VALUE_L
  525 00000444 7833            LDRB             R3, [R6]
  526 00000446 F85F 60E8       LDR.W            R6, =INIT_VALUE_L
  527 0000044A 7033            STRB             R3, [R6]
  528 0000044C         
  529 0000044C F85F 60E8       LDR.W            R6, =CURR_VALUE_H
  530 00000450 7834            LDRB             R4, [R6]
  531 00000452 F85F 60F0       LDR.W            R6, =INIT_VALUE_H
  532 00000456 7034            STRB             R4, [R6]
  533 00000458         
  534 00000458         WAIT_FOR_RELEASE_ENTER
  535 00000458 F000 F857       BL               UPDATE_DISPLAY
  536 0000045C         
  537 0000045C 6806            LDR              R6, [R0]
  538 0000045E F416 6F00       TST              R6, #0x800
  539 00000462         
  540 00000462 D1F9            BNE              WAIT_FOR_RELEASE_ENTER
  541 00000464         SKIP_ENTER
  542 00000464         
  543 00000464 BD49            POP              {R0,R3,R6,PC}
  544 00000466         ;*******************************************************
                       ********************************************
  545 00000466         ;* Jmeno funkce  : HANDLE_SUB_BUTTON
  546 00000466         ;* Popis   : Odecte 1 od display, osetruje preteceni
  547 00000466         ;* Vstup   : R3 - inkrementace pocitadla
  548 00000466         ;* Vystup   : Zadny 
  549 00000466         ;*******************************************************
                       ******************************************* 
  550 00000466         HANDLE_SUB_BUTTON
  551 00000466 B559            PUSH             {R0,R3,R4,R6,LR}
  552 00000468 4856            LDR              R0, =GPIOC_IDR
  553 0000046A 6806            LDR              R6, [R0]
  554 0000046C F016 0F80       TST              R6, #0x80
  555 00000470         
  556 00000470 D021            BEQ              SKIP_SUB
  557 00000472         
  558 00000472 F000 F93F       BL               DELAY



ARM Macro Assembler    Page 40 


  559 00000476         
  560 00000476 6806            LDR              R6, [R0]
  561 00000478 F016 0F80       TST              R6, #0x80
  562 0000047C         
  563 0000047C D01B            BEQ              SKIP_SUB
  564 0000047E         
  565 0000047E F85F 6114       LDR.W            R6, =CURR_VALUE_L
  566 00000482 7833            LDRB             R3, [R6]
  567 00000484 F85F 6120       LDR.W            R6, =CURR_VALUE_H
  568 00000488 7834            LDRB             R4, [R6]
  569 0000048A         
  570 0000048A 2B00            CMP              R3, #0
  571 0000048C D105            BNE              NO_SUB_LOGIC
  572 0000048E 2C00            CMP              R4, #0
  573 00000490 D005            BEQ              SUB_OVERFLOW
  574 00000492 F1A4 0401       SUB              R4, #1
  575 00000496 F04F 030A       MOV              R3, #10
  576 0000049A         
  577 0000049A         NO_SUB_LOGIC
  578 0000049A F1A3 0301       SUB              R3, R3, #1
  579 0000049E         SUB_OVERFLOW
  580 0000049E F85F 6134       LDR.W            R6, =CURR_VALUE_L
  581 000004A2 7033            STRB             R3, [R6]
  582 000004A4 F85F 6140       LDR.W            R6, =CURR_VALUE_H
  583 000004A8 7034            STRB             R4, [R6]
  584 000004AA         
  585 000004AA         
  586 000004AA         
  587 000004AA         WAIT_FOR_RELEASE_SUB
  588 000004AA F000 F82E       BL               UPDATE_DISPLAY
  589 000004AE         
  590 000004AE 6806            LDR              R6, [R0]
  591 000004B0 F016 0F80       TST              R6, #0x80
  592 000004B4         
  593 000004B4 D1F9            BNE              WAIT_FOR_RELEASE_SUB
  594 000004B6         SKIP_SUB
  595 000004B6         
  596 000004B6 BD59            POP              {R0,R3,R4,R6,PC}
  597 000004B8         ;*******************************************************
                       ********************************************
  598 000004B8         ;* Jmeno funkce  : HANDLE_ADD_BUTTON
  599 000004B8         ;* Popis   : Pricte 1 k display, osetruje preteceni
  600 000004B8         ;* Vstup   : R3 - inkrementace pocitadla
  601 000004B8         ;* Vystup   : Zadny 
  602 000004B8         ;*******************************************************
                       ******************************************* 
  603 000004B8         HANDLE_ADD_BUTTON
  604 000004B8 B559            PUSH             {R0,R3,R4,R6,LR}
  605 000004BA 4842            LDR              R0, =GPIOC_IDR
  606 000004BC 6806            LDR              R6, [R0]
  607 000004BE F016 0F40       TST              R6, #0x40
  608 000004C2         
  609 000004C2 D021            BEQ              SKIP_ADD
  610 000004C4         
  611 000004C4 F000 F916       BL               DELAY
  612 000004C8         
  613 000004C8 6806            LDR              R6, [R0]
  614 000004CA F016 0F40       TST              R6, #0x40
  615 000004CE D01B            BEQ              SKIP_ADD



ARM Macro Assembler    Page 41 


  616 000004D0         
  617 000004D0 F85F 6168       LDR.W            R6, =CURR_VALUE_L
  618 000004D4 7833            LDRB             R3, [R6]
  619 000004D6 F85F 6170       LDR.W            R6, =CURR_VALUE_H
  620 000004DA 7834            LDRB             R4, [R6]
  621 000004DC         
  622 000004DC 2B09            CMP              R3, #9
  623 000004DE D105            BNE              NO_ADD_LOGIC
  624 000004E0 2C09            CMP              R4, #9
  625 000004E2 D005            BEQ              ADD_OVERFLOW
  626 000004E4 F104 0401       ADD              R4, #1
  627 000004E8 F04F 33FF       MOV              R3, #-1
  628 000004EC         
  629 000004EC         NO_ADD_LOGIC
  630 000004EC F103 0301       ADD              R3, #1
  631 000004F0         ADD_OVERFLOW
  632 000004F0 F85F 6188       LDR.W            R6, =CURR_VALUE_L
  633 000004F4 7033            STRB             R3, [R6]
  634 000004F6 F85F 6190       LDR.W            R6, =CURR_VALUE_H
  635 000004FA 7034            STRB             R4, [R6]
  636 000004FC         
  637 000004FC         WAIT_FOR_RELEASE_ADD
  638 000004FC F000 F805       BL               UPDATE_DISPLAY
  639 00000500         
  640 00000500 6806            LDR              R6, [R0]
  641 00000502 F016 0F40       TST              R6, #0x40
  642 00000506         
  643 00000506 D1F9            BNE              WAIT_FOR_RELEASE_ADD
  644 00000508         SKIP_ADD
  645 00000508         
  646 00000508 BD59            POP              {R0,R3,R4,R6,PC}
  647 0000050A         ;*******************************************************
                       ********************************************
  648 0000050A         ;* Jmeno funkce  : UPDATE_DISPLAY
  649 0000050A         ;* Popis   : Upraví 7-mi segmentovy display
  650 0000050A         ;* Vstup   : R3 - jake cislo se ma zobrazit
  651 0000050A         ;* Vystup   : Zadny
  652 0000050A         ;*******************************************************
                       ******************************************* 
  653 0000050A         UPDATE_DISPLAY
  654 0000050A B54F            PUSH             {R0,R1,R2,R3,R6,LR}
  655 0000050C F85F 11A4       LDR.W            R1, =CURR_VALUE_L
  656 00000510 7808            LDRB             R0, [R1]
  657 00000512         ;SUB  R0, R0, #1
  658 00000512 EA4F 0080       LSL              R0, R0, #2
  659 00000516 F2AF 5118       adr              R1,numbers_L
  660 0000051A 4408            ADD              R0, R0, R1
  661 0000051C 6801            LDR              R1, [R0]
  662 0000051E F04F 0008       MOV              R0, #8
  663 00000522 F081 01FF       EOR              R1, R1, #0xFF
  664 00000526         
  665 00000526 4E28            LDR              R6, =GPIOB_ODR
  666 00000528         
  667 00000528         DOWHILE
  668 00000528 F001 0201       AND              R2, R1, #2_00000001
  669 0000052C EA4F 12C2       LSL              R2, R2, #7
  670 00000530 F042 027F       ORR              R2, R2, #0x7F
  671 00000534 F002 02A0       AND              R2, R2, #0xA0
  672 00000538 F04F 0320       MOV              R3, #0x20



ARM Macro Assembler    Page 42 


  673 0000053C 6033            STR              R3, [R6]
  674 0000053E EA42 0203       ORR              R2, R2, R3
  675 00000542 6032            STR              R2, [R6]
  676 00000544 F042 0240       ORR              R2, R2, #0x40
  677 00000548 6032            STR              R2, [R6]
  678 0000054A         
  679 0000054A 0849            LSRS             R1, R1, #1
  680 0000054C         
  681 0000054C 1E40            SUBS             R0, R0, #1
  682 0000054E D1EB            BNE              DOWHILE
  683 00000550         
  684 00000550 F442 7200       ORR              R2, R2, #0x200
  685 00000554 6032            STR              R2, [R6]
  686 00000556         
  687 00000556 F000 F8CD       BL               DELAY
  688 0000055A         
  689 0000055A F85F 11F4       LDR.W            R1, =CURR_VALUE_H
  690 0000055E 7808            LDRB             R0, [R1]
  691 00000560         ;SUB  R0, R0, #1
  692 00000560 EA4F 0080       LSL              R0, R0, #2
  693 00000564 F2AF 5168       adr              R1,numbers_L
  694 00000568 4408            ADD              R0, R0, R1
  695 0000056A 6801            LDR              R1, [R0]
  696 0000056C F04F 0008       MOV              R0, #8
  697 00000570 F081 01FF       EOR              R1, R1, #0xFF
  698 00000574         
  699 00000574 4E14            LDR              R6, =GPIOB_ODR
  700 00000576         
  701 00000576         DOWHILE2
  702 00000576 F001 0201       AND              R2, R1, #2_00000001
  703 0000057A EA4F 12C2       LSL              R2, R2, #7
  704 0000057E F042 027F       ORR              R2, R2, #0x7F
  705 00000582 F002 02A0       AND              R2, R2, #0xA0
  706 00000586 F04F 0320       MOV              R3, #0x20
  707 0000058A 6033            STR              R3, [R6]
  708 0000058C EA42 0203       ORR              R2, R2, R3
  709 00000590 6032            STR              R2, [R6]
  710 00000592 F042 0240       ORR              R2, R2, #0x40
  711 00000596 6032            STR              R2, [R6]
  712 00000598         
  713 00000598 0849            LSRS             R1, R1, #1
  714 0000059A         
  715 0000059A 1E40            SUBS             R0, R0, #1
  716 0000059C D1EB            BNE              DOWHILE2
  717 0000059E         
  718 0000059E F442 7280       ORR              R2, R2, #0x100
  719 000005A2 6032            STR              R2, [R6]
  720 000005A4         
  721 000005A4 F000 F8A6       BL               DELAY
  722 000005A8         
  723 000005A8 BD4F            POP              {R0,R1,R2,R3,R6,PC}
  724 000005AA         ;*******************************************************
                       ********************************************
  725 000005AA         ;* Jmeno funkce  : RCC_CNF
  726 000005AA         ;* Popis   : Konfigurace systemovych hodin a hodin perif
                       erii
  727 000005AA         ;* Vstup   : Zadny
  728 000005AA         ;* Vystup   : Zadny
  729 000005AA         ;* Komentar   : Nastaveni PLL jako zdroj hodin systemu (



ARM Macro Assembler    Page 43 


                       24MHz),
  730 000005AA         ;*        a privedeni hodin na branu A, B a C  
  731 000005AA         ;*******************************************************
                       *******************************************
  732 000005AA 00 00 40013800 
              40013804 
              40013808 
              4001380C 
              00000000 
              40010808 
              40011008 
              40010C0C         LTORG
  733 000005CC         RCC_CNF
  734 000005CC 484D            LDR              R0, =RCC_CR ; Kopie adresy RCC_
                                                            CR (Clock Control R
                                                            egister) do R0,
  735 000005CE         ; RCC_CRje v souboru INI.S   
  736 000005CE 6801            LDR              R1, [R0]    ; Nacteni obsahu re
                                                            gistru na adrese v 
                                                            R0 do R1
  737 000005D0 F421 21A0       BIC              R1, R1, #0x50000 ; Editace hodn
                                                            oty v R1, tj. nulov
                                                            ani hodnoty, kde je
                                                             '1'
  738 000005D4         ; HSE oscilator OFF (HSEON), ext.oscilator NOT BZPASSED(
                       HSEBYP) 
  739 000005D4 6001            STR              R1, [R0]    ; Ulozeni editovane
                                                             hodnoty v R1 na ad
                                                            resu v R0 
  740 000005D6         
  741 000005D6 6801            LDR              R1, [R0]    ; Opet nacteni do R
                                                            1 stav registru RCC
                                                            _CR
  742 000005D8 F441 3180       ORR              R1, R1, #0x10000 ; Maska pro za
                                                            pnuti HSE (krystalo
                                                            vy oscilator) 
  743 000005DC 6001            STR              R1, [R0]    ; HSE zapnut
  744 000005DE 6801    NO_HSE_RDY
                               LDR              R1, [R0]    ; Nacteni do R1 sta
                                                            v registru RCC_CR
  745 000005E0 F411 3F00       TST              R1, #0x20000 ; Test stability H
                                                            SE, (R0 & 0x20000)
  746 000005E4 D0FB            BEQ              NO_HSE_RDY  ; Skok pri nestabil
                                                            ite, pri stabilite 
                                                            se pokracuje v kodu
                                                            
  747 000005E6         
  748 000005E6 4848            LDR              R0, =RCC_CFGR ; Nacteni adresy 
                                                            RCC_CFGR (Clock Con
                                                            figuration Register
                                                            ) do R0
  749 000005E8 6801            LDR              R1, [R0]    ; Nacteni do R1 sta
                                                            v registru RCC_CFGR
                                                            
  750 000005EA F021 01F0       BIC              R1, R1, #0xF0 ; Editace, SCLK n
                                                            edeleno
  751 000005EE 6001            STR              R1, [R0]    ; Ulozeni noveho st
                                                            avu do RCC_CFGR 
  752 000005F0         



ARM Macro Assembler    Page 44 


  753 000005F0 6801            LDR              R1, [R0]    ; Opet nacteni RCC_
                                                            CFGR
  754 000005F2 F421 5160       BIC              R1, R1, #0x3800 ; Editace, HCLK
                                                             nedeleno (PPRE2)
  755 000005F6 6001            STR              R1, [R0]    ; Ulozeni nove hodn
                                                            oty                
                                                                
  756 000005F8         
  757 000005F8 6801            LDR              R1, [R0]    ; Opet nacteni RCC_
                                                            CFGR
  758 000005FA F421 61E0       BIC              R1, R1, #0x700 ; HCLK nedeleno 
                                                            (PPRE1)
  759 000005FE F441 6180       ORR              R1, R1, #0x400 ; Maskovani, kon
                                                            stanta pro HCLK/2
  760 00000602 6001            STR              R1, [R0]    ; Ulozeni nove hodn
                                                            oty
  761 00000604         
  762 00000604 6801            LDR              R1, [R0]    ; Opet nacteni RCC_
                                                            CFGR
  763 00000606 F421 117C       BIC              R1, R1, #0x3F0000 ; Nuluje PLLM
                                                            UL, PLLXTPRE, PLLSR
                                                            C
  764 0000060A 4A40            LDR              R2, =0x50400 ; Maska, PLL x3, H
                                                            SE jako PLL vstup, 
                                                            HCLK/2 =24MHz Clk
  765 0000060C EA41 0102       ORR              R1, R1, R2  ; Maskovani, logick
                                                            y soucet R1 a R2 
  766 00000610 6001            STR              R1, [R0]    ; Ulozeni nove hodn
                                                            oty   
  767 00000612         
  768 00000612 483F            LDR              R0, =PLLON  ; Nacteni adresy bi
                                                            tu PLLON do R0(ADRE
                                                            SA BIT BANDING)
  769 00000614 F04F 0101       MOV              R1, #0x01   ; Konstanta pro pov
                                                            oleni PLL (fazovy z
                                                            aves) 
  770 00000618 6001            STR              R1, [R0]    ; Ulozeni nove hodn
                                                            oty
  771 0000061A         
  772 0000061A 483A            LDR              R0, =RCC_CR ; Kopie adresy  RCC
                                                            _CR do R0
  773 0000061C 6801    NO_PLL_RDY
                               LDR              R1, [R0]    ; Nacteni stavu reg
                                                            istru RCC_CR do R1
  774 0000061E F011 7F00       TST              R1, #0x2000000 ; Test spusteni 
                                                            PLL (test stability
                                                            )
  775 00000622 D0FB            BEQ              NO_PLL_RDY  ; Skok na navesti N
                                                            O_PLL_RDY pri nespu
                                                            stene PLL
  776 00000624         
  777 00000624 4838            LDR              R0, =RCC_CFGR ; Kopie adresy RC
                                                            C_CFGR do R0
  778 00000626 6801            LDR              R1, [R0]    ; Nacteni stavu reg
                                                            istru RCC_CFGR do R
                                                            1
  779 00000628 F021 0103       BIC              R1, R1, #0x3 ; HSI jako hodiny
  780 0000062C         ; ORR  R1, R1, #0x1 ; Maskovani, HSE jako hodiny
  781 0000062C F041 0102       ORR              R1, R1, #0x2 ; Maskovani, PLL j



ARM Macro Assembler    Page 45 


                                                            ako hodiny
  782 00000630 6001            STR              R1, [R0]    ; PLL je zdroj hodi
                                                            n
  783 00000632         
  784 00000632 4838            LDR              R0, =RCC_APB2ENR ; Kopie adresy
                                                             RCC_APB2ENR (APB2 
                                                            peripheral clock en
                                                            able register) do R
                                                            0  
  785 00000634 6801            LDR              R1, [R0]    ; Nacteni stavu reg
                                                            istru RCC_APB2ENR d
                                                            o R1
  786 00000636 F244 021D       LDR              R2, =0x401D ; Konstanta pro zap
                                                            nuti hodin pro bran
                                                            u A, B a C
  787 0000063A EA41 0102       ORR              R1, R1, R2  ; Maskovani  
  788 0000063E 6001            STR              R1, [R0]    ; Ulozeni nove hodn
                                                            oty
  789 00000640         
  790 00000640 4770            BX               LR          ; Navrat z podprogr
                                                            amu, skok na adresu
                                                             v LR
  791 00000642         
  792 00000642         ;*******************************************************
                       *******************************************
  793 00000642         ;* Jmeno funkce  : GPIO_CNF
  794 00000642         ;* Popis   : Konfigurace brany A a C
  795 00000642         ;* Vstup   : Zadny
  796 00000642         ;* Vystup   : Zadny
  797 00000642         ;* Komentar   : Nastaveni PC08 a PC09 jako vystup (10MHz
                       ), PA0 jako vstup push-pull 
  798 00000642         ;*******************************************************
                       *******************************************
  799 00000642         GPIO_CNF                             ; Navesti zacatku p
                                                            odprogramu
  800 00000642 F04F 02FF       LDR              R2, =0xFF   ; Konstanta pro nul
                                                            ovani nastaveni bit
                                                            u 8, 9 
  801 00000646 4834            LDR              R0, =GPIOC_CRH ; Kopie adresy G
                                                            PIOC_CRH (Port Conf
                                                            iguration Register 
                                                            High)
  802 00000648         ; do R0, GPIOC_CRH je v souboru INI.S 
  803 00000648 6801            LDR              R1, [R0]    ; Nacteni hodnoty z
                                                             adresy v R0 do R1 
                                                            
  804 0000064A EA21 0102       BIC              R1, R1, R2  ; Nulovani bitu v R
                                                            2 
  805 0000064E F04F 0211       MOV              R2, #0x11   ; Vlozeni 1 do R2
  806 00000652 EA41 0102       ORR              R1, R1, R2  ; maskovani, bit 8,
                                                             9 nastven jako vys
                                                            tup push-pull v mod
                                                            u 1 (10MHz)
  807 00000656 6001            STR              R1, [R0]    ; Ulozeni konfigura
                                                            ce PCO9 a PC09
  808 00000658         
  809 00000658 F04F 020F       LDR              R2, =0xF    ; Konstanta pro nul
                                                            ovani nastaveni bit
                                                            u 0 



ARM Macro Assembler    Page 46 


  810 0000065C 482F            LDR              R0, =GPIOA_CRL ; Kopie adresy G
                                                            PIOA_CRL (Port Conf
                                                            iguration Register 
                                                            Low)
  811 0000065E         ; do R0, GPIOA_CRL je v souboru INI.S 
  812 0000065E 6801            LDR              R1, [R0]    ; Nacteni hodnoty z
                                                             adresy v R0 do R1 
                                                            
  813 00000660 EA21 0102       BIC              R1, R1, R2  ; Nulovani bitu v R
                                                            2 
  814 00000664 F04F 0208       MOV              R2, #0x8    ; Vlozeni 1 do R2
  815 00000668 EA41 0102       ORR              R1, R1, R2  ; maskovani, bit 0 
                                                            nastven jako push-p
                                                            ull vstup
  816 0000066C 6001            STR              R1, [R0]    ; Ulozeni konfigura
                                                            ce PAO0
  817 0000066E         
  818 0000066E F04F 427F       LDR              R2, =0xFF000000 ; Konstanta pro
                                                             nulovani nastaveni
                                                             bitu 0 
  819 00000672 482B            LDR              R0, =GPIOB_CRL ; Kopie adresy G
                                                            PIOB_CRL (Port Conf
                                                            iguration Register 
                                                            Low)
  820 00000674         ; do R0, GPIOB_CRL je v souboru INI.S 
  821 00000674 6801            LDR              R1, [R0]    ; Nacteni hodnoty z
                                                             adresy v R0 do R1 
                                                            
  822 00000676 EA21 0102       BIC              R1, R1, R2  ; Nulovani bitu v R
                                                            2 
  823 0000067A F04F 5288       MOV              R2, #0x11000000 ; Vlozeni 11100
                                                            000 do R2
  824 0000067E EA41 0102       ORR              R1, R1, R2  ; maskovani, bit 0 
                                                            nastven jako push-p
                                                            ull výstup
  825 00000682 6001            STR              R1, [R0]    ; Ulozeni konfigura
                                                            ce PB05, PB06, PB07
                                                            
  826 00000684         
  827 00000684 F44F 0270       LDR              R2, =0xF00000 ; Konstanta pro n
                                                            ulovani nastaveni b
                                                            itu 0 
  828 00000688 4825            LDR              R0, =GPIOB_CRL ; Kopie adresy G
                                                            PIOB_CRL (Port Conf
                                                            iguration Register 
                                                            Low)
  829 0000068A         ; do R0, GPIOB_CRL je v souboru INI.S 
  830 0000068A 6801            LDR              R1, [R0]    ; Nacteni hodnoty z
                                                             adresy v R0 do R1 
                                                            
  831 0000068C EA21 0102       BIC              R1, R1, R2  ; Nulovani bitu v R
                                                            2 
  832 00000690 F44F 1280       MOV              R2, #0x100000 ; Vlozeni 1110000
                                                            0 do R2
  833 00000694 EA41 0102       ORR              R1, R1, R2  ; maskovani, bit 0 
                                                            nastven jako push-p
                                                            ull výstup
  834 00000698 6001            STR              R1, [R0]    ; Ulozeni konfigura
                                                            ce PB05, PB06, PB07



ARM Macro Assembler    Page 47 


                                                             
  835 0000069A         
  836 0000069A F04F 02FF       LDR              R2, =0xFF   ; Konstanta pro nul
                                                            ovani nastaveni bit
                                                            u 0 
  837 0000069E 4821            LDR              R0, =GPIOB_CRH ; Kopie adresy G
                                                            PIOB_CRH (Port Conf
                                                            iguration Register 
                                                            High)
  838 000006A0         ; do R0, GPIOB_CRH je v souboru INI.S 
  839 000006A0 6801            LDR              R1, [R0]    ; Nacteni hodnoty z
                                                             adresy v R0 do R1 
                                                            
  840 000006A2 EA21 0102       BIC              R1, R1, R2  ; Nulovani bitu v R
                                                            2 
  841 000006A6 F04F 0211       MOV              R2, #0x11   ; Vlozeni 0x88 do R
                                                            2
  842 000006AA EA41 0102       ORR              R1, R1, R2  ; maskovani, bit 8,
                                                             9 nastven jako pus
                                                            h-pull vstup
  843 000006AE 6001            STR              R1, [R0]    ; Ulozeni konfigura
                                                            ce PB08, PB09
  844 000006B0         
  845 000006B0 F44F 4270       LDR              R2, =0xF000 ; Konstanta pro nul
                                                            ovani nastaveni bit
                                                            u 0 
  846 000006B4 481C            LDR              R0, =GPIOA_CRH ; Kopie adresy G
                                                            PIOA_CRH (Port Conf
                                                            iguration Register 
                                                            High)
  847 000006B6         ; do R0, GPIOA_CRH je v souboru INI.S 
  848 000006B6 6801            LDR              R1, [R0]    ; Nacteni hodnoty z
                                                             adresy v R0 do R1 
                                                            
  849 000006B8 EA21 0102       BIC              R1, R1, R2  ; Nulovani bitu v R
                                                            2 
  850 000006BC F44F 4200       MOV              R2, #0x8000 ; Vlozeni 0x800 do 
                                                            R2
  851 000006C0 EA41 0102       ORR              R1, R1, R2  ; maskovani, bit 11
                                                             nastven jako push-
                                                            pull vstup
  852 000006C4 6001            STR              R1, [R0]    ; Ulozeni konfigura
                                                            ce PB11
  853 000006C6         
  854 000006C6 F04F 427F       LDR              R2, =0xFF000000 ; Konstanta pro
                                                             nulovani nastaveni
                                                             bitu 0 
  855 000006CA 4818            LDR              R0, =GPIOC_CRL ; Kopie adresy G
                                                            PIOC_CRL (Port Conf
                                                            iguration Register 
                                                            Low)
  856 000006CC         ; do R0, GPIOC_CRL je v souboru INI.S 
  857 000006CC 6801            LDR              R1, [R0]    ; Nacteni hodnoty z
                                                             adresy v R0 do R1 
                                                            
  858 000006CE EA21 0102       BIC              R1, R1, R2  ; Nulovani bitu v R
                                                            2 
  859 000006D2 F04F 4208       MOV              R2, #0x88000000 ; Vlozeni 10000
                                                            000 do R2



ARM Macro Assembler    Page 48 


  860 000006D6 EA41 0102       ORR              R1, R1, R2  ; maskovani, bit 0 
                                                            nastven jako push-p
                                                            ull výstup
  861 000006DA 6001            STR              R1, [R0]    ; Ulozeni konfigura
                                                            ce PB05, PB06, PB07
                                                             
  862 000006DC         
  863 000006DC F04F 02F0       LDR              R2, =0xF0   ; konstanta pro nul
                                                            ovani nastaveni bit
                                                            u 10 
  864 000006E0 4811            LDR              R0, =GPIOA_CRH ; konfiguracni r
                                                            egistr
  865 000006E2 6801            LDR              R1, [R0]
  866 000006E4 EA21 0102       BIC              R1, R1, R2  ; PA9
  867 000006E8 F04F 02B0       LDR              R2, =0xB0
  868 000006EC EA41 0102       ORR              R1, R1, R2  ; PA9 jako vystup a
                                                            lter. fce push-pull
                                                            
  869 000006F0 6001            STR              R1, [R0]
  870 000006F2         
  871 000006F2         ; PA10 je jiz po resetu nastaven jako plovouci vstup
  872 000006F2 4770            BX               LR
  873 000006F4         
  874 000006F4         ;*******************************************************
                       *******************************************
  875 000006F4         ;* Jmeno funkce  : DELAY
  876 000006F4         ;* Popis   : Softwarove zpozdeni procesoru
  877 000006F4         ;* Vstup   : R0 = pocet opakovani cyklu spozdeni
  878 000006F4         ;* Vystup   : Zadny
  879 000006F4         ;* Komentar   : Podprodram zpozdi prubech vykonavani pro
                       gramu 
  880 000006F4         ;*******************************************************
                       *******************************************
  881 000006F4         DELAY                                ; Navesti zacatku p
                                                            odprogramu
  882 000006F4 B504            PUSH             {R2, LR}    ; Ulozeni hodnoty R
                                                            2 do zasobniku (R2 
                                                            muze byt editovan)
  883 000006F6         ; a ulozeni navratove adresy do zasobniku
  884 000006F6         WAIT1
  885 000006F6 F44F 627A       LDR              R2, =4000   ; Vlozeni konstanty
                                                             pro prodlevu do R2
                                                            
  886 000006FA 1E52    WAIT    SUBS             R2, R2, #1  ; Odecteni 1 od R2,
                                                            tj. R2 = R2 - 1 a n
                                                            astaveni priznakove
                                                            ho registru    
  887 000006FC D1FD            BNE              WAIT        ; Skok na navesti p
                                                            ri nenulovosti R2 (
                                                            skok dle priznaku)
  888 000006FE         
  889 000006FE BD04            POP              {R2, PC}    ; Navrat z podprogr
                                                            amu, obnoveni hodno
                                                            ty R2 ze zasobniku
  890 00000700         ; a navratove adresy do PC                
  891 00000700         ;*******************************************************
                       *******************************************
  892 00000700 BF00            NOP
  893 00000702 00 00           ALIGN



ARM Macro Assembler    Page 49 


  894 00000704                 END
              40021000 
              40021004 
              00050400 
              42420060 
              40021018 
              40011004 
              40010800 
              40010C00 
              40010C04 
              40010804 
              40011000 
Command Line: --debug --xref --cpu=Cortex-M3 --apcs=interwork --depend=.\led_tl
c.d -o.\led_tlc.o -IC:\Keil\ARM\RV31\INC -IC:\Keil\ARM\CMSIS\Include -IC:\Keil\
ARM\Inc\ST\STM32F10x --predefine="__EVAL SETA 1" --list=.\led_tlc.lst LED_TLC.a
sm



ARM Macro Assembler    Page 1 Alphabetic symbol ordering
Relocatable symbols

CURR_VALUE_H 0000000C

Symbol: CURR_VALUE_H
   Definitions
      At line 20 in file LED_TLC.asm
   Uses
      At line 110 in file LED_TLC.asm
      At line 189 in file LED_TLC.asm
      At line 288 in file LED_TLC.asm
      At line 360 in file LED_TLC.asm
      At line 388 in file LED_TLC.asm
      At line 465 in file LED_TLC.asm
      At line 485 in file LED_TLC.asm
      At line 529 in file LED_TLC.asm
      At line 567 in file LED_TLC.asm
      At line 582 in file LED_TLC.asm
      At line 619 in file LED_TLC.asm
      At line 634 in file LED_TLC.asm
      At line 689 in file LED_TLC.asm

CURR_VALUE_L 00000008

Symbol: CURR_VALUE_L
   Definitions
      At line 19 in file LED_TLC.asm
   Uses
      At line 115 in file LED_TLC.asm
      At line 184 in file LED_TLC.asm
      At line 238 in file LED_TLC.asm
      At line 261 in file LED_TLC.asm
      At line 286 in file LED_TLC.asm
      At line 355 in file LED_TLC.asm
      At line 386 in file LED_TLC.asm
      At line 463 in file LED_TLC.asm
      At line 483 in file LED_TLC.asm
      At line 524 in file LED_TLC.asm
      At line 565 in file LED_TLC.asm
      At line 580 in file LED_TLC.asm
      At line 617 in file LED_TLC.asm
      At line 632 in file LED_TLC.asm
      At line 655 in file LED_TLC.asm

INIT_VALUE_H 00000004

Symbol: INIT_VALUE_H
   Definitions
      At line 18 in file LED_TLC.asm
   Uses
      At line 97 in file LED_TLC.asm
      At line 108 in file LED_TLC.asm
      At line 187 in file LED_TLC.asm
      At line 362 in file LED_TLC.asm
      At line 531 in file LED_TLC.asm

INIT_VALUE_L 00000000

Symbol: INIT_VALUE_L
   Definitions
      At line 17 in file LED_TLC.asm



ARM Macro Assembler    Page 2 Alphabetic symbol ordering
Relocatable symbols

   Uses
      At line 93 in file LED_TLC.asm
      At line 113 in file LED_TLC.asm
      At line 182 in file LED_TLC.asm
      At line 236 in file LED_TLC.asm
      At line 357 in file LED_TLC.asm
      At line 526 in file LED_TLC.asm

MOJEDATA 00000000

Symbol: MOJEDATA
   Definitions
      At line 16 in file LED_TLC.asm
   Uses
      None
Comment: MOJEDATA unused
5 symbols



ARM Macro Assembler    Page 1 Alphabetic symbol ordering
Relocatable symbols

STM32F1xx 00000000

Symbol: STM32F1xx
   Definitions
      At line 23 in file LED_TLC.asm
   Uses
      None
Comment: STM32F1xx unused
1 symbol



ARM Macro Assembler    Page 1 Alphabetic symbol ordering
Relocatable symbols

ADD_OVERFLOW 000004F0

Symbol: ADD_OVERFLOW
   Definitions
      At line 631 in file LED_TLC.asm
   Uses
      At line 625 in file LED_TLC.asm
Comment: ADD_OVERFLOW used once
ADD_OVERFLOW_U 00000296

Symbol: ADD_OVERFLOW_U
   Definitions
      At line 303 in file LED_TLC.asm
   Uses
      At line 297 in file LED_TLC.asm
Comment: ADD_OVERFLOW_U used once
BREAK 00000342

Symbol: BREAK
   Definitions
      At line 385 in file LED_TLC.asm
   Uses
      At line 314 in file LED_TLC.asm
      At line 339 in file LED_TLC.asm

BREAK_AFTER_SAVE 0000034E

Symbol: BREAK_AFTER_SAVE
   Definitions
      At line 390 in file LED_TLC.asm
   Uses
      At line 365 in file LED_TLC.asm
Comment: BREAK_AFTER_SAVE used once
BUTTON_PRESSED 0000021A

Symbol: BUTTON_PRESSED
   Definitions
      At line 229 in file LED_TLC.asm
   Uses
      At line 209 in file LED_TLC.asm
      At line 266 in file LED_TLC.asm

CONTINUE_COUNTING 00000214

Symbol: CONTINUE_COUNTING
   Definitions
      At line 221 in file LED_TLC.asm
   Uses
      None
Comment: CONTINUE_COUNTING unused
CONTINUE_COUNTING_1 00000252

Symbol: CONTINUE_COUNTING_1
   Definitions
      At line 259 in file LED_TLC.asm
   Uses
      At line 256 in file LED_TLC.asm
Comment: CONTINUE_COUNTING_1 used once
COUNTDOWN 000001FA



ARM Macro Assembler    Page 2 Alphabetic symbol ordering
Relocatable symbols


Symbol: COUNTDOWN
   Definitions
      At line 204 in file LED_TLC.asm
   Uses
      At line 227 in file LED_TLC.asm
      At line 245 in file LED_TLC.asm

COUNTDOWN_INIT 000001BC

Symbol: COUNTDOWN_INIT
   Definitions
      At line 172 in file LED_TLC.asm
   Uses
      At line 373 in file LED_TLC.asm
Comment: COUNTDOWN_INIT used once
DATA_TEXT 000000E5

Symbol: DATA_TEXT
   Definitions
      At line 34 in file LED_TLC.asm
   Uses
      None
Comment: DATA_TEXT unused
DELAY 000006F4

Symbol: DELAY
   Definitions
      At line 881 in file LED_TLC.asm
   Uses
      At line 517 in file LED_TLC.asm
      At line 558 in file LED_TLC.asm
      At line 611 in file LED_TLC.asm
      At line 687 in file LED_TLC.asm
      At line 721 in file LED_TLC.asm

DOWHILE 00000528

Symbol: DOWHILE
   Definitions
      At line 667 in file LED_TLC.asm
   Uses
      At line 682 in file LED_TLC.asm
Comment: DOWHILE used once
DOWHILE2 00000576

Symbol: DOWHILE2
   Definitions
      At line 701 in file LED_TLC.asm
   Uses
      At line 716 in file LED_TLC.asm
Comment: DOWHILE2 used once
END_MESSAGE 00000110

Symbol: END_MESSAGE
   Definitions
      At line 36 in file LED_TLC.asm
   Uses
      At line 196 in file LED_TLC.asm



ARM Macro Assembler    Page 3 Alphabetic symbol ordering
Relocatable symbols

      At line 472 in file LED_TLC.asm

END_SEND 00000394

Symbol: END_SEND
   Definitions
      At line 410 in file LED_TLC.asm
   Uses
      At line 407 in file LED_TLC.asm
Comment: END_SEND used once
GPIO_CNF 00000642

Symbol: GPIO_CNF
   Definitions
      At line 799 in file LED_TLC.asm
   Uses
      At line 64 in file LED_TLC.asm
Comment: GPIO_CNF used once
HANDLE_ADD_BUTTON 000004B8

Symbol: HANDLE_ADD_BUTTON
   Definitions
      At line 603 in file LED_TLC.asm
   Uses
      At line 122 in file LED_TLC.asm
Comment: HANDLE_ADD_BUTTON used once
HANDLE_COUNTDOWN 000003C4

Symbol: HANDLE_COUNTDOWN
   Definitions
      At line 460 in file LED_TLC.asm
   Uses
      At line 219 in file LED_TLC.asm
Comment: HANDLE_COUNTDOWN used once
HANDLE_ENTER_BUTTON 00000428

Symbol: HANDLE_ENTER_BUTTON
   Definitions
      At line 508 in file LED_TLC.asm
   Uses
      At line 126 in file LED_TLC.asm
Comment: HANDLE_ENTER_BUTTON used once
HANDLE_SUB_BUTTON 00000466

Symbol: HANDLE_SUB_BUTTON
   Definitions
      At line 550 in file LED_TLC.asm
   Uses
      At line 124 in file LED_TLC.asm
Comment: HANDLE_SUB_BUTTON used once
INIT_LOOP 0000017A

Symbol: INIT_LOOP
   Definitions
      At line 119 in file LED_TLC.asm
   Uses
      At line 145 in file LED_TLC.asm
Comment: INIT_LOOP used once
INIT_SKIP 0000023E



ARM Macro Assembler    Page 4 Alphabetic symbol ordering
Relocatable symbols


Symbol: INIT_SKIP
   Definitions
      At line 246 in file LED_TLC.asm
   Uses
      At line 234 in file LED_TLC.asm
Comment: INIT_SKIP used once
MAIN 00000128

Symbol: MAIN
   Definitions
      At line 60 in file LED_TLC.asm
   Uses
      None
Comment: MAIN unused
NEXT_B 00000388

Symbol: NEXT_B
   Definitions
      At line 405 in file LED_TLC.asm
   Uses
      At line 409 in file LED_TLC.asm
Comment: NEXT_B used once
NOT_END 000003E2

Symbol: NOT_END
   Definitions
      At line 475 in file LED_TLC.asm
   Uses
      At line 469 in file LED_TLC.asm
      At line 471 in file LED_TLC.asm

NOT_MINUS 000002F2

Symbol: NOT_MINUS
   Definitions
      At line 340 in file LED_TLC.asm
   Uses
      At line 317 in file LED_TLC.asm
Comment: NOT_MINUS used once
NOT_PLUS 000002B8

Symbol: NOT_PLUS
   Definitions
      At line 315 in file LED_TLC.asm
   Uses
      At line 292 in file LED_TLC.asm
Comment: NOT_PLUS used once
NOT_SPACE 00000330

Symbol: NOT_SPACE
   Definitions
      At line 366 in file LED_TLC.asm
   Uses
      At line 343 in file LED_TLC.asm
Comment: NOT_SPACE used once
NOT_YET_SECOND 00000218

Symbol: NOT_YET_SECOND



ARM Macro Assembler    Page 5 Alphabetic symbol ordering
Relocatable symbols

   Definitions
      At line 226 in file LED_TLC.asm
   Uses
      At line 216 in file LED_TLC.asm
Comment: NOT_YET_SECOND used once
NOT_YET_SECOND_1 00000260

Symbol: NOT_YET_SECOND_1
   Definitions
      At line 265 in file LED_TLC.asm
   Uses
      At line 253 in file LED_TLC.asm
Comment: NOT_YET_SECOND_1 used once
NOT_ZERO 000001F6

Symbol: NOT_ZERO
   Definitions
      At line 199 in file LED_TLC.asm
   Uses
      At line 193 in file LED_TLC.asm
      At line 195 in file LED_TLC.asm

NOT_h 00000342

Symbol: NOT_h
   Definitions
      At line 380 in file LED_TLC.asm
   Uses
      At line 376 in file LED_TLC.asm
Comment: NOT_h used once
NOT_s 00000338

Symbol: NOT_s
   Definitions
      At line 374 in file LED_TLC.asm
   Uses
      At line 369 in file LED_TLC.asm
Comment: NOT_s used once
NO_ADD_LOGIC 000004EC

Symbol: NO_ADD_LOGIC
   Definitions
      At line 629 in file LED_TLC.asm
   Uses
      At line 623 in file LED_TLC.asm
Comment: NO_ADD_LOGIC used once
NO_ADD_LOGIC_U 00000292

Symbol: NO_ADD_LOGIC_U
   Definitions
      At line 301 in file LED_TLC.asm
   Uses
      At line 295 in file LED_TLC.asm
Comment: NO_ADD_LOGIC_U used once
NO_HANDLE_LOGIC 000003EE

Symbol: NO_HANDLE_LOGIC
   Definitions
      At line 481 in file LED_TLC.asm



ARM Macro Assembler    Page 6 Alphabetic symbol ordering
Relocatable symbols

   Uses
      At line 477 in file LED_TLC.asm
Comment: NO_HANDLE_LOGIC used once
NO_HSE_RDY 000005DE

Symbol: NO_HSE_RDY
   Definitions
      At line 744 in file LED_TLC.asm
   Uses
      At line 746 in file LED_TLC.asm
Comment: NO_HSE_RDY used once
NO_PLL_RDY 0000061C

Symbol: NO_PLL_RDY
   Definitions
      At line 773 in file LED_TLC.asm
   Uses
      At line 775 in file LED_TLC.asm
Comment: NO_PLL_RDY used once
NO_RDY_REC 00000352

Symbol: NO_RDY_REC
   Definitions
      At line 392 in file LED_TLC.asm
   Uses
      At line 280 in file LED_TLC.asm
Comment: NO_RDY_REC used once
NO_RDY_TRAN 00000398

Symbol: NO_RDY_TRAN
   Definitions
      At line 421 in file LED_TLC.asm
   Uses
      At line 425 in file LED_TLC.asm
Comment: NO_RDY_TRAN used once
NO_SUB_LOGIC 0000049A

Symbol: NO_SUB_LOGIC
   Definitions
      At line 577 in file LED_TLC.asm
   Uses
      At line 571 in file LED_TLC.asm
Comment: NO_SUB_LOGIC used once
NO_SUB_LOGIC_U 000002CC

Symbol: NO_SUB_LOGIC_U
   Definitions
      At line 326 in file LED_TLC.asm
   Uses
      At line 320 in file LED_TLC.asm
Comment: NO_SUB_LOGIC_U used once
RCC_CNF 000005CC

Symbol: RCC_CNF
   Definitions
      At line 733 in file LED_TLC.asm
   Uses
      At line 61 in file LED_TLC.asm
Comment: RCC_CNF used once



ARM Macro Assembler    Page 7 Alphabetic symbol ordering
Relocatable symbols

REC_USART 00000262

Symbol: REC_USART
   Definitions
      At line 275 in file LED_TLC.asm
   Uses
      At line 120 in file LED_TLC.asm
Comment: REC_USART used once
SKIP_ADD 00000508

Symbol: SKIP_ADD
   Definitions
      At line 644 in file LED_TLC.asm
   Uses
      At line 609 in file LED_TLC.asm
      At line 615 in file LED_TLC.asm

SKIP_ENTER 00000464

Symbol: SKIP_ENTER
   Definitions
      At line 541 in file LED_TLC.asm
   Uses
      At line 516 in file LED_TLC.asm
      At line 522 in file LED_TLC.asm

SKIP_SUB 000004B6

Symbol: SKIP_SUB
   Definitions
      At line 594 in file LED_TLC.asm
   Uses
      At line 556 in file LED_TLC.asm
      At line 563 in file LED_TLC.asm

START 00000152

Symbol: START
   Definitions
      At line 101 in file LED_TLC.asm
   Uses
      At line 158 in file LED_TLC.asm
      At line 198 in file LED_TLC.asm
      At line 258 in file LED_TLC.asm
      At line 474 in file LED_TLC.asm

START_MESSAGE 000000FC

Symbol: START_MESSAGE
   Definitions
      At line 35 in file LED_TLC.asm
   Uses
      At line 173 in file LED_TLC.asm
Comment: START_MESSAGE used once
STM32F10x_INI 00000000

Symbol: STM32F10x_INI
   Definitions
      At line 10 in file INI.s



ARM Macro Assembler    Page 8 Alphabetic symbol ordering
Relocatable symbols

   Uses
      None
Comment: STM32F10x_INI unused
SUB_OVERFLOW 0000049E

Symbol: SUB_OVERFLOW
   Definitions
      At line 579 in file LED_TLC.asm
   Uses
      At line 573 in file LED_TLC.asm
Comment: SUB_OVERFLOW used once
SUB_OVERFLOW_U 000002D0

Symbol: SUB_OVERFLOW_U
   Definitions
      At line 328 in file LED_TLC.asm
   Uses
      At line 322 in file LED_TLC.asm
Comment: SUB_OVERFLOW_U used once
TEST_REALEASE_OF_BUTTON 000001B0

Symbol: TEST_REALEASE_OF_BUTTON
   Definitions
      At line 160 in file LED_TLC.asm
   Uses
      At line 170 in file LED_TLC.asm
Comment: TEST_REALEASE_OF_BUTTON used once
TRAN_USART 00000396

Symbol: TRAN_USART
   Definitions
      At line 420 in file LED_TLC.asm
   Uses
      At line 304 in file LED_TLC.asm
      At line 307 in file LED_TLC.asm
      At line 310 in file LED_TLC.asm
      At line 312 in file LED_TLC.asm
      At line 329 in file LED_TLC.asm
      At line 332 in file LED_TLC.asm
      At line 335 in file LED_TLC.asm
      At line 337 in file LED_TLC.asm
      At line 345 in file LED_TLC.asm
      At line 348 in file LED_TLC.asm
      At line 351 in file LED_TLC.asm
      At line 353 in file LED_TLC.asm
      At line 408 in file LED_TLC.asm
      At line 489 in file LED_TLC.asm
      At line 492 in file LED_TLC.asm
      At line 495 in file LED_TLC.asm
      At line 497 in file LED_TLC.asm

TRAN_USART_TEXT 00000384

Symbol: TRAN_USART_TEXT
   Definitions
      At line 403 in file LED_TLC.asm
   Uses
      At line 81 in file LED_TLC.asm
      At line 174 in file LED_TLC.asm



ARM Macro Assembler    Page 9 Alphabetic symbol ordering
Relocatable symbols

      At line 197 in file LED_TLC.asm
      At line 378 in file LED_TLC.asm
      At line 473 in file LED_TLC.asm

UPDATE_DISPLAY 0000050A

Symbol: UPDATE_DISPLAY
   Definitions
      At line 653 in file LED_TLC.asm
   Uses
      At line 117 in file LED_TLC.asm
      At line 130 in file LED_TLC.asm
      At line 152 in file LED_TLC.asm
      At line 162 in file LED_TLC.asm
      At line 201 in file LED_TLC.asm
      At line 211 in file LED_TLC.asm
      At line 240 in file LED_TLC.asm
      At line 248 in file LED_TLC.asm
      At line 263 in file LED_TLC.asm
      At line 391 in file LED_TLC.asm
      At line 499 in file LED_TLC.asm
      At line 535 in file LED_TLC.asm
      At line 588 in file LED_TLC.asm
      At line 638 in file LED_TLC.asm

USART_CNF 000003AA

Symbol: USART_CNF
   Definitions
      At line 440 in file LED_TLC.asm
   Uses
      At line 70 in file LED_TLC.asm
Comment: USART_CNF used once
WAIT 000006FA

Symbol: WAIT
   Definitions
      At line 886 in file LED_TLC.asm
   Uses
      At line 887 in file LED_TLC.asm
Comment: WAIT used once
WAIT1 000006F6

Symbol: WAIT1
   Definitions
      At line 884 in file LED_TLC.asm
   Uses
      None
Comment: WAIT1 unused
WAIT_FOR_RELEASE_ADD 000004FC

Symbol: WAIT_FOR_RELEASE_ADD
   Definitions
      At line 637 in file LED_TLC.asm
   Uses
      At line 643 in file LED_TLC.asm
Comment: WAIT_FOR_RELEASE_ADD used once
WAIT_FOR_RELEASE_ENTER 00000458




ARM Macro Assembler    Page 10 Alphabetic symbol ordering
Relocatable symbols

Symbol: WAIT_FOR_RELEASE_ENTER
   Definitions
      At line 534 in file LED_TLC.asm
   Uses
      At line 540 in file LED_TLC.asm
Comment: WAIT_FOR_RELEASE_ENTER used once
WAIT_FOR_RELEASE_SUB 000004AA

Symbol: WAIT_FOR_RELEASE_SUB
   Definitions
      At line 587 in file LED_TLC.asm
   Uses
      At line 593 in file LED_TLC.asm
Comment: WAIT_FOR_RELEASE_SUB used once
WELCOME_MESSAGE 00000028

Symbol: WELCOME_MESSAGE
   Definitions
      At line 33 in file LED_TLC.asm
   Uses
      At line 80 in file LED_TLC.asm
      At line 377 in file LED_TLC.asm

__main 00000128

Symbol: __main
   Definitions
      At line 48 in file LED_TLC.asm
   Uses
      At line 44 in file LED_TLC.asm
Comment: __main used once
__use_two_region_memory 00000128

Symbol: __use_two_region_memory
   Definitions
      At line 47 in file LED_TLC.asm
   Uses
      At line 45 in file LED_TLC.asm
Comment: __use_two_region_memory used once
initial_counter_value 00000124

Symbol: initial_counter_value
   Definitions
      At line 40 in file LED_TLC.asm
   Uses
      None
Comment: initial_counter_value unused
numbers_L 00000000

Symbol: numbers_L
   Definitions
      At line 31 in file LED_TLC.asm
   Uses
      At line 659 in file LED_TLC.asm
      At line 693 in file LED_TLC.asm

67 symbols



ARM Macro Assembler    Page 1 Alphabetic symbol ordering
Absolute symbols

ADC1EN 42420324

Symbol: ADC1EN
   Definitions
      At line 240 in file INI.s
   Uses
      None
Comment: ADC1EN unused
ADC1_ETRGINJ_REMAP 422000C4

Symbol: ADC1_ETRGINJ_REMAP
   Definitions
      At line 291 in file INI.s
   Uses
      None
Comment: ADC1_ETRGINJ_REMAP unused
ADC1_ETRGREG_REMAP 422000C8

Symbol: ADC1_ETRGREG_REMAP
   Definitions
      At line 290 in file INI.s
   Uses
      None
Comment: ADC1_ETRGREG_REMAP unused
ADC2EN 42420328

Symbol: ADC2EN
   Definitions
      At line 239 in file INI.s
   Uses
      None
Comment: ADC2EN unused
ADC2_ETRGINJ_REMAP 422000CC

Symbol: ADC2_ETRGINJ_REMAP
   Definitions
      At line 289 in file INI.s
   Uses
      None
Comment: ADC2_ETRGINJ_REMAP unused
ADC2_ETRGREG_REMAP 422000D0

Symbol: ADC2_ETRGREG_REMAP
   Definitions
      At line 288 in file INI.s
   Uses
      None
Comment: ADC2_ETRGREG_REMAP unused
ADC3EN 4242033C

Symbol: ADC3EN
   Definitions
      At line 234 in file INI.s
   Uses
      None
Comment: ADC3EN unused
ADCPRE 424200B8

Symbol: ADCPRE



ARM Macro Assembler    Page 2 Alphabetic symbol ordering
Absolute symbols

   Definitions
      At line 208 in file INI.s
   Uses
      None
Comment: ADCPRE unused
ADC_CR1 40012404

Symbol: ADC_CR1
   Definitions
      At line 632 in file INI.s
   Uses
      None
Comment: ADC_CR1 unused
ADC_CR2 40012408

Symbol: ADC_CR2
   Definitions
      At line 634 in file INI.s
   Uses
      None
Comment: ADC_CR2 unused
ADC_DR 4001244C

Symbol: ADC_DR
   Definitions
      At line 668 in file INI.s
   Uses
      None
Comment: ADC_DR unused
ADC_HTR 40012424

Symbol: ADC_HTR
   Definitions
      At line 648 in file INI.s
   Uses
      None
Comment: ADC_HTR unused
ADC_JDR1 4001243C

Symbol: ADC_JDR1
   Definitions
      At line 660 in file INI.s
   Uses
      None
Comment: ADC_JDR1 unused
ADC_JDR2 40012440

Symbol: ADC_JDR2
   Definitions
      At line 662 in file INI.s
   Uses
      None
Comment: ADC_JDR2 unused
ADC_JDR3 40012444

Symbol: ADC_JDR3
   Definitions
      At line 664 in file INI.s
   Uses



ARM Macro Assembler    Page 3 Alphabetic symbol ordering
Absolute symbols

      None
Comment: ADC_JDR3 unused
ADC_JDR4 40012448

Symbol: ADC_JDR4
   Definitions
      At line 666 in file INI.s
   Uses
      None
Comment: ADC_JDR4 unused
ADC_JOFR1 40012414

Symbol: ADC_JOFR1
   Definitions
      At line 640 in file INI.s
   Uses
      None
Comment: ADC_JOFR1 unused
ADC_JOFR2 40012418

Symbol: ADC_JOFR2
   Definitions
      At line 642 in file INI.s
   Uses
      None
Comment: ADC_JOFR2 unused
ADC_JOFR3 4001241C

Symbol: ADC_JOFR3
   Definitions
      At line 644 in file INI.s
   Uses
      None
Comment: ADC_JOFR3 unused
ADC_JOFR4 40012420

Symbol: ADC_JOFR4
   Definitions
      At line 646 in file INI.s
   Uses
      None
Comment: ADC_JOFR4 unused
ADC_JSQR 40012438

Symbol: ADC_JSQR
   Definitions
      At line 658 in file INI.s
   Uses
      None
Comment: ADC_JSQR unused
ADC_LTR 40012428

Symbol: ADC_LTR
   Definitions
      At line 650 in file INI.s
   Uses
      None
Comment: ADC_LTR unused
ADC_SMPR1 4001240C



ARM Macro Assembler    Page 4 Alphabetic symbol ordering
Absolute symbols


Symbol: ADC_SMPR1
   Definitions
      At line 636 in file INI.s
   Uses
      None
Comment: ADC_SMPR1 unused
ADC_SMPR2 40012410

Symbol: ADC_SMPR2
   Definitions
      At line 638 in file INI.s
   Uses
      None
Comment: ADC_SMPR2 unused
ADC_SQR1 4001242C

Symbol: ADC_SQR1
   Definitions
      At line 652 in file INI.s
   Uses
      None
Comment: ADC_SQR1 unused
ADC_SQR2 40012430

Symbol: ADC_SQR2
   Definitions
      At line 654 in file INI.s
   Uses
      None
Comment: ADC_SQR2 unused
ADC_SQR3 40012434

Symbol: ADC_SQR3
   Definitions
      At line 656 in file INI.s
   Uses
      None
Comment: ADC_SQR3 unused
ADC_SR 40012400

Symbol: ADC_SR
   Definitions
      At line 630 in file INI.s
   Uses
      None
Comment: ADC_SR unused
AFIOEN 42420300

Symbol: AFIOEN
   Definitions
      At line 248 in file INI.s
   Uses
      None
Comment: AFIOEN unused
AFIO_EXTICR1 40010008

Symbol: AFIO_EXTICR1
   Definitions



ARM Macro Assembler    Page 5 Alphabetic symbol ordering
Absolute symbols

      At line 305 in file INI.s
   Uses
      None
Comment: AFIO_EXTICR1 unused
AFIO_EXTICR2 4001000C

Symbol: AFIO_EXTICR2
   Definitions
      At line 306 in file INI.s
   Uses
      None
Comment: AFIO_EXTICR2 unused
AFIO_EXTICR3 40010010

Symbol: AFIO_EXTICR3
   Definitions
      At line 307 in file INI.s
   Uses
      None
Comment: AFIO_EXTICR3 unused
AFIO_EXTICR4 40010014

Symbol: AFIO_EXTICR4
   Definitions
      At line 308 in file INI.s
   Uses
      None
Comment: AFIO_EXTICR4 unused
AFIO_MAPR 40010004

Symbol: AFIO_MAPR
   Definitions
      At line 285 in file INI.s
   Uses
      None
Comment: AFIO_MAPR unused
AIDR0 42210100

Symbol: AIDR0
   Definitions
      At line 41 in file INI.s
   Uses
      None
Comment: AIDR0 unused
AIDR1 42210104

Symbol: AIDR1
   Definitions
      At line 40 in file INI.s
   Uses
      None
Comment: AIDR1 unused
AIDR10 42210128

Symbol: AIDR10
   Definitions
      At line 31 in file INI.s
   Uses
      None



ARM Macro Assembler    Page 6 Alphabetic symbol ordering
Absolute symbols

Comment: AIDR10 unused
AIDR11 4221012C

Symbol: AIDR11
   Definitions
      At line 30 in file INI.s
   Uses
      None
Comment: AIDR11 unused
AIDR12 42210130

Symbol: AIDR12
   Definitions
      At line 29 in file INI.s
   Uses
      None
Comment: AIDR12 unused
AIDR13 42210134

Symbol: AIDR13
   Definitions
      At line 28 in file INI.s
   Uses
      None
Comment: AIDR13 unused
AIDR14 42210138

Symbol: AIDR14
   Definitions
      At line 27 in file INI.s
   Uses
      None
Comment: AIDR14 unused
AIDR15 4221013C

Symbol: AIDR15
   Definitions
      At line 26 in file INI.s
   Uses
      None
Comment: AIDR15 unused
AIDR2 42210108

Symbol: AIDR2
   Definitions
      At line 39 in file INI.s
   Uses
      None
Comment: AIDR2 unused
AIDR3 4221010C

Symbol: AIDR3
   Definitions
      At line 38 in file INI.s
   Uses
      None
Comment: AIDR3 unused
AIDR4 42210110




ARM Macro Assembler    Page 7 Alphabetic symbol ordering
Absolute symbols

Symbol: AIDR4
   Definitions
      At line 37 in file INI.s
   Uses
      None
Comment: AIDR4 unused
AIDR5 42210114

Symbol: AIDR5
   Definitions
      At line 36 in file INI.s
   Uses
      None
Comment: AIDR5 unused
AIDR6 42210118

Symbol: AIDR6
   Definitions
      At line 35 in file INI.s
   Uses
      None
Comment: AIDR6 unused
AIDR7 4221011C

Symbol: AIDR7
   Definitions
      At line 34 in file INI.s
   Uses
      None
Comment: AIDR7 unused
AIDR8 42210120

Symbol: AIDR8
   Definitions
      At line 33 in file INI.s
   Uses
      None
Comment: AIDR8 unused
AIDR9 42210124

Symbol: AIDR9
   Definitions
      At line 32 in file INI.s
   Uses
      None
Comment: AIDR9 unused
AODR0 42210180

Symbol: AODR0
   Definitions
      At line 61 in file INI.s
   Uses
      None
Comment: AODR0 unused
AODR1 42210184

Symbol: AODR1
   Definitions
      At line 60 in file INI.s



ARM Macro Assembler    Page 8 Alphabetic symbol ordering
Absolute symbols

   Uses
      None
Comment: AODR1 unused
AODR10 422101A8

Symbol: AODR10
   Definitions
      At line 51 in file INI.s
   Uses
      None
Comment: AODR10 unused
AODR11 422101AC

Symbol: AODR11
   Definitions
      At line 50 in file INI.s
   Uses
      None
Comment: AODR11 unused
AODR12 422101B0

Symbol: AODR12
   Definitions
      At line 49 in file INI.s
   Uses
      None
Comment: AODR12 unused
AODR13 422101B4

Symbol: AODR13
   Definitions
      At line 48 in file INI.s
   Uses
      None
Comment: AODR13 unused
AODR14 422101B8

Symbol: AODR14
   Definitions
      At line 47 in file INI.s
   Uses
      None
Comment: AODR14 unused
AODR15 422101BC

Symbol: AODR15
   Definitions
      At line 46 in file INI.s
   Uses
      None
Comment: AODR15 unused
AODR2 42210188

Symbol: AODR2
   Definitions
      At line 59 in file INI.s
   Uses
      None
Comment: AODR2 unused



ARM Macro Assembler    Page 9 Alphabetic symbol ordering
Absolute symbols

AODR3 4221018C

Symbol: AODR3
   Definitions
      At line 58 in file INI.s
   Uses
      None
Comment: AODR3 unused
AODR4 42210190

Symbol: AODR4
   Definitions
      At line 57 in file INI.s
   Uses
      None
Comment: AODR4 unused
AODR5 42210194

Symbol: AODR5
   Definitions
      At line 56 in file INI.s
   Uses
      None
Comment: AODR5 unused
AODR6 42210198

Symbol: AODR6
   Definitions
      At line 55 in file INI.s
   Uses
      None
Comment: AODR6 unused
AODR7 4221019C

Symbol: AODR7
   Definitions
      At line 54 in file INI.s
   Uses
      None
Comment: AODR7 unused
AODR8 422101A0

Symbol: AODR8
   Definitions
      At line 53 in file INI.s
   Uses
      None
Comment: AODR8 unused
AODR9 422101A4

Symbol: AODR9
   Definitions
      At line 52 in file INI.s
   Uses
      None
Comment: AODR9 unused
BIDR0 42218100

Symbol: BIDR0



ARM Macro Assembler    Page 10 Alphabetic symbol ordering
Absolute symbols

   Definitions
      At line 153 in file INI.s
   Uses
      None
Comment: BIDR0 unused
BIDR1 42218104

Symbol: BIDR1
   Definitions
      At line 152 in file INI.s
   Uses
      None
Comment: BIDR1 unused
BIDR10 42218128

Symbol: BIDR10
   Definitions
      At line 143 in file INI.s
   Uses
      None
Comment: BIDR10 unused
BIDR11 4221812C

Symbol: BIDR11
   Definitions
      At line 142 in file INI.s
   Uses
      None
Comment: BIDR11 unused
BIDR12 42218130

Symbol: BIDR12
   Definitions
      At line 141 in file INI.s
   Uses
      None
Comment: BIDR12 unused
BIDR13 42218134

Symbol: BIDR13
   Definitions
      At line 140 in file INI.s
   Uses
      None
Comment: BIDR13 unused
BIDR14 42218138

Symbol: BIDR14
   Definitions
      At line 139 in file INI.s
   Uses
      None
Comment: BIDR14 unused
BIDR15 4221813C

Symbol: BIDR15
   Definitions
      At line 138 in file INI.s
   Uses



ARM Macro Assembler    Page 11 Alphabetic symbol ordering
Absolute symbols

      None
Comment: BIDR15 unused
BIDR2 42218108

Symbol: BIDR2
   Definitions
      At line 151 in file INI.s
   Uses
      None
Comment: BIDR2 unused
BIDR3 4221810C

Symbol: BIDR3
   Definitions
      At line 150 in file INI.s
   Uses
      None
Comment: BIDR3 unused
BIDR4 42218110

Symbol: BIDR4
   Definitions
      At line 149 in file INI.s
   Uses
      None
Comment: BIDR4 unused
BIDR5 42218114

Symbol: BIDR5
   Definitions
      At line 148 in file INI.s
   Uses
      None
Comment: BIDR5 unused
BIDR6 42218118

Symbol: BIDR6
   Definitions
      At line 147 in file INI.s
   Uses
      None
Comment: BIDR6 unused
BIDR7 4221811C

Symbol: BIDR7
   Definitions
      At line 146 in file INI.s
   Uses
      None
Comment: BIDR7 unused
BIDR8 42218120

Symbol: BIDR8
   Definitions
      At line 145 in file INI.s
   Uses
      None
Comment: BIDR8 unused
BIDR9 42218124



ARM Macro Assembler    Page 12 Alphabetic symbol ordering
Absolute symbols


Symbol: BIDR9
   Definitions
      At line 144 in file INI.s
   Uses
      None
Comment: BIDR9 unused
BKPEN 424203E8

Symbol: BKPEN
   Definitions
      At line 254 in file INI.s
   Uses
      None
Comment: BKPEN unused
BODR0 42218180

Symbol: BODR0
   Definitions
      At line 173 in file INI.s
   Uses
      None
Comment: BODR0 unused
BODR1 42218184

Symbol: BODR1
   Definitions
      At line 172 in file INI.s
   Uses
      None
Comment: BODR1 unused
BODR10 422181A8

Symbol: BODR10
   Definitions
      At line 163 in file INI.s
   Uses
      None
Comment: BODR10 unused
BODR11 422181AC

Symbol: BODR11
   Definitions
      At line 162 in file INI.s
   Uses
      None
Comment: BODR11 unused
BODR12 422181B0

Symbol: BODR12
   Definitions
      At line 161 in file INI.s
   Uses
      None
Comment: BODR12 unused
BODR13 422181B4

Symbol: BODR13
   Definitions



ARM Macro Assembler    Page 13 Alphabetic symbol ordering
Absolute symbols

      At line 160 in file INI.s
   Uses
      None
Comment: BODR13 unused
BODR14 422181B8

Symbol: BODR14
   Definitions
      At line 159 in file INI.s
   Uses
      None
Comment: BODR14 unused
BODR15 422181BC

Symbol: BODR15
   Definitions
      At line 158 in file INI.s
   Uses
      None
Comment: BODR15 unused
BODR2 42218188

Symbol: BODR2
   Definitions
      At line 171 in file INI.s
   Uses
      None
Comment: BODR2 unused
BODR3 4221818C

Symbol: BODR3
   Definitions
      At line 170 in file INI.s
   Uses
      None
Comment: BODR3 unused
BODR4 42218190

Symbol: BODR4
   Definitions
      At line 169 in file INI.s
   Uses
      None
Comment: BODR4 unused
BODR5 42218194

Symbol: BODR5
   Definitions
      At line 168 in file INI.s
   Uses
      None
Comment: BODR5 unused
BODR6 42218198

Symbol: BODR6
   Definitions
      At line 167 in file INI.s
   Uses
      None



ARM Macro Assembler    Page 14 Alphabetic symbol ordering
Absolute symbols

Comment: BODR6 unused
BODR7 4221819C

Symbol: BODR7
   Definitions
      At line 166 in file INI.s
   Uses
      None
Comment: BODR7 unused
BODR8 422181A0

Symbol: BODR8
   Definitions
      At line 165 in file INI.s
   Uses
      None
Comment: BODR8 unused
BODR9 422181A4

Symbol: BODR9
   Definitions
      At line 164 in file INI.s
   Uses
      None
Comment: BODR9 unused
CANEN 424203E4

Symbol: CANEN
   Definitions
      At line 255 in file INI.s
   Uses
      None
Comment: CANEN unused
CAN_REMAP 422000B4

Symbol: CAN_REMAP
   Definitions
      At line 294 in file INI.s
   Uses
      None
Comment: CAN_REMAP unused
CC1IE_T2 42000184

Symbol: CC1IE_T2
   Definitions
      At line 425 in file INI.s
   Uses
      None
Comment: CC1IE_T2 unused
CC1IE_T3 42000184

Symbol: CC1IE_T3
   Definitions
      At line 486 in file INI.s
   Uses
      None
Comment: CC1IE_T3 unused
CC1IE_T4 42010184




ARM Macro Assembler    Page 15 Alphabetic symbol ordering
Absolute symbols

Symbol: CC1IE_T4
   Definitions
      At line 545 in file INI.s
   Uses
      None
Comment: CC1IE_T4 unused
CC2IE_T2 42000188

Symbol: CC2IE_T2
   Definitions
      At line 424 in file INI.s
   Uses
      None
Comment: CC2IE_T2 unused
CC2IE_T3 42000188

Symbol: CC2IE_T3
   Definitions
      At line 485 in file INI.s
   Uses
      None
Comment: CC2IE_T3 unused
CC2IE_T4 42010188

Symbol: CC2IE_T4
   Definitions
      At line 544 in file INI.s
   Uses
      None
Comment: CC2IE_T4 unused
CC3IE_T2 4200018C

Symbol: CC3IE_T2
   Definitions
      At line 423 in file INI.s
   Uses
      None
Comment: CC3IE_T2 unused
CC3IE_T3 4200018C

Symbol: CC3IE_T3
   Definitions
      At line 484 in file INI.s
   Uses
      None
Comment: CC3IE_T3 unused
CC3IE_T4 4201018C

Symbol: CC3IE_T4
   Definitions
      At line 543 in file INI.s
   Uses
      None
Comment: CC3IE_T4 unused
CC4IE_T1 42258184

Symbol: CC4IE_T1
   Definitions
      At line 365 in file INI.s



ARM Macro Assembler    Page 16 Alphabetic symbol ordering
Absolute symbols

   Uses
      None
Comment: CC4IE_T1 unused
CC4IE_T2 42000190

Symbol: CC4IE_T2
   Definitions
      At line 422 in file INI.s
   Uses
      None
Comment: CC4IE_T2 unused
CC4IE_T3 42008190

Symbol: CC4IE_T3
   Definitions
      At line 483 in file INI.s
   Uses
      None
Comment: CC4IE_T3 unused
CC4IE_T4 42010190

Symbol: CC4IE_T4
   Definitions
      At line 542 in file INI.s
   Uses
      None
Comment: CC4IE_T4 unused
CEN_T1 42258000

Symbol: CEN_T1
   Definitions
      At line 356 in file INI.s
   Uses
      None
Comment: CEN_T1 unused
CEN_T2 42000000

Symbol: CEN_T2
   Definitions
      At line 413 in file INI.s
   Uses
      None
Comment: CEN_T2 unused
CEN_T3 42008000

Symbol: CEN_T3
   Definitions
      At line 474 in file INI.s
   Uses
      None
Comment: CEN_T3 unused
CEN_T4 42010000

Symbol: CEN_T4
   Definitions
      At line 533 in file INI.s
   Uses
      None
Comment: CEN_T4 unused



ARM Macro Assembler    Page 17 Alphabetic symbol ordering
Absolute symbols

CIDR0 42220100

Symbol: CIDR0
   Definitions
      At line 97 in file INI.s
   Uses
      None
Comment: CIDR0 unused
CIDR1 42220104

Symbol: CIDR1
   Definitions
      At line 96 in file INI.s
   Uses
      None
Comment: CIDR1 unused
CIDR10 42220128

Symbol: CIDR10
   Definitions
      At line 87 in file INI.s
   Uses
      None
Comment: CIDR10 unused
CIDR11 4222012C

Symbol: CIDR11
   Definitions
      At line 86 in file INI.s
   Uses
      None
Comment: CIDR11 unused
CIDR12 42220130

Symbol: CIDR12
   Definitions
      At line 85 in file INI.s
   Uses
      None
Comment: CIDR12 unused
CIDR13 42220134

Symbol: CIDR13
   Definitions
      At line 84 in file INI.s
   Uses
      None
Comment: CIDR13 unused
CIDR14 42220138

Symbol: CIDR14
   Definitions
      At line 83 in file INI.s
   Uses
      None
Comment: CIDR14 unused
CIDR15 4222013C

Symbol: CIDR15



ARM Macro Assembler    Page 18 Alphabetic symbol ordering
Absolute symbols

   Definitions
      At line 82 in file INI.s
   Uses
      None
Comment: CIDR15 unused
CIDR2 42220108

Symbol: CIDR2
   Definitions
      At line 95 in file INI.s
   Uses
      None
Comment: CIDR2 unused
CIDR3 4222010C

Symbol: CIDR3
   Definitions
      At line 94 in file INI.s
   Uses
      None
Comment: CIDR3 unused
CIDR4 42220110

Symbol: CIDR4
   Definitions
      At line 93 in file INI.s
   Uses
      None
Comment: CIDR4 unused
CIDR5 42220114

Symbol: CIDR5
   Definitions
      At line 92 in file INI.s
   Uses
      None
Comment: CIDR5 unused
CIDR6 42220118

Symbol: CIDR6
   Definitions
      At line 91 in file INI.s
   Uses
      None
Comment: CIDR6 unused
CIDR7 4222011C

Symbol: CIDR7
   Definitions
      At line 90 in file INI.s
   Uses
      None
Comment: CIDR7 unused
CIDR8 42220120

Symbol: CIDR8
   Definitions
      At line 89 in file INI.s
   Uses



ARM Macro Assembler    Page 19 Alphabetic symbol ordering
Absolute symbols

      None
Comment: CIDR8 unused
CIDR9 42220124

Symbol: CIDR9
   Definitions
      At line 88 in file INI.s
   Uses
      None
Comment: CIDR9 unused
CODR0 42220180

Symbol: CODR0
   Definitions
      At line 117 in file INI.s
   Uses
      None
Comment: CODR0 unused
CODR1 42220184

Symbol: CODR1
   Definitions
      At line 116 in file INI.s
   Uses
      None
Comment: CODR1 unused
CODR10 422201A8

Symbol: CODR10
   Definitions
      At line 107 in file INI.s
   Uses
      None
Comment: CODR10 unused
CODR11 422201AC

Symbol: CODR11
   Definitions
      At line 106 in file INI.s
   Uses
      None
Comment: CODR11 unused
CODR12 422201B0

Symbol: CODR12
   Definitions
      At line 105 in file INI.s
   Uses
      None
Comment: CODR12 unused
CODR13 422201B4

Symbol: CODR13
   Definitions
      At line 104 in file INI.s
   Uses
      None
Comment: CODR13 unused
CODR14 422201B8



ARM Macro Assembler    Page 20 Alphabetic symbol ordering
Absolute symbols


Symbol: CODR14
   Definitions
      At line 103 in file INI.s
   Uses
      None
Comment: CODR14 unused
CODR15 422201BC

Symbol: CODR15
   Definitions
      At line 102 in file INI.s
   Uses
      None
Comment: CODR15 unused
CODR2 42220188

Symbol: CODR2
   Definitions
      At line 115 in file INI.s
   Uses
      None
Comment: CODR2 unused
CODR3 4222018C

Symbol: CODR3
   Definitions
      At line 114 in file INI.s
   Uses
      None
Comment: CODR3 unused
CODR4 42220190

Symbol: CODR4
   Definitions
      At line 113 in file INI.s
   Uses
      None
Comment: CODR4 unused
CODR5 42220194

Symbol: CODR5
   Definitions
      At line 112 in file INI.s
   Uses
      None
Comment: CODR5 unused
CODR6 42220198

Symbol: CODR6
   Definitions
      At line 111 in file INI.s
   Uses
      None
Comment: CODR6 unused
CODR7 4222019C

Symbol: CODR7
   Definitions



ARM Macro Assembler    Page 21 Alphabetic symbol ordering
Absolute symbols

      At line 110 in file INI.s
   Uses
      None
Comment: CODR7 unused
CODR8 422201A0

Symbol: CODR8
   Definitions
      At line 109 in file INI.s
   Uses
      None
Comment: CODR8 unused
CODR9 422201A4

Symbol: CODR9
   Definitions
      At line 108 in file INI.s
   Uses
      None
Comment: CODR9 unused
CSSF 4242011C

Symbol: CSSF
   Definitions
      At line 219 in file INI.s
   Uses
      None
Comment: CSSF unused
CSSON 4242004C

Symbol: CSSON
   Definitions
      At line 192 in file INI.s
   Uses
      None
Comment: CSSON unused
DACEN 424203F4

Symbol: DACEN
   Definitions
      At line 252 in file INI.s
   Uses
      None
Comment: DACEN unused
DIR_T1 42258010

Symbol: DIR_T1
   Definitions
      At line 352 in file INI.s
   Uses
      None
Comment: DIR_T1 unused
DIR_T2 42000010

Symbol: DIR_T2
   Definitions
      At line 409 in file INI.s
   Uses
      None



ARM Macro Assembler    Page 22 Alphabetic symbol ordering
Absolute symbols

Comment: DIR_T2 unused
DIR_T3 42008010

Symbol: DIR_T3
   Definitions
      At line 470 in file INI.s
   Uses
      None
Comment: DIR_T3 unused
DIR_T4 42010010

Symbol: DIR_T4
   Definitions
      At line 529 in file INI.s
   Uses
      None
Comment: DIR_T4 unused
DISPLAYABLE_MAX 0000000A

Symbol: DISPLAYABLE_MAX
   Definitions
      At line 30 in file LED_TLC.asm
   Uses
      None
Comment: DISPLAYABLE_MAX unused
EXTI_EMR 40010404

Symbol: EXTI_EMR
   Definitions
      At line 589 in file INI.s
   Uses
      None
Comment: EXTI_EMR unused
EXTI_FTSR 4001040C

Symbol: EXTI_FTSR
   Definitions
      At line 593 in file INI.s
   Uses
      None
Comment: EXTI_FTSR unused
EXTI_IMR 40010400

Symbol: EXTI_IMR
   Definitions
      At line 587 in file INI.s
   Uses
      None
Comment: EXTI_IMR unused
EXTI_PR 40010414

Symbol: EXTI_PR
   Definitions
      At line 597 in file INI.s
   Uses
      None
Comment: EXTI_PR unused
EXTI_RTSR 40010408




ARM Macro Assembler    Page 23 Alphabetic symbol ordering
Absolute symbols

Symbol: EXTI_RTSR
   Definitions
      At line 591 in file INI.s
   Uses
      None
Comment: EXTI_RTSR unused
EXTI_SWIER 40010410

Symbol: EXTI_SWIER
   Definitions
      At line 595 in file INI.s
   Uses
      None
Comment: EXTI_SWIER unused
FLASH_ACR 40022000

Symbol: FLASH_ACR
   Definitions
      At line 341 in file INI.s
   Uses
      None
Comment: FLASH_ACR unused
GPIOA_BRR 40010814

Symbol: GPIOA_BRR
   Definitions
      At line 66 in file INI.s
   Uses
      None
Comment: GPIOA_BRR unused
GPIOA_BSRR 40010810

Symbol: GPIOA_BSRR
   Definitions
      At line 64 in file INI.s
   Uses
      None
Comment: GPIOA_BSRR unused
GPIOA_CRH 40010804

Symbol: GPIOA_CRH
   Definitions
      At line 22 in file INI.s
   Uses
      At line 846 in file LED_TLC.asm
      At line 864 in file LED_TLC.asm

GPIOA_CRL 40010800

Symbol: GPIOA_CRL
   Definitions
      At line 20 in file INI.s
   Uses
      At line 810 in file LED_TLC.asm
Comment: GPIOA_CRL used once
GPIOA_IDR 40010808

Symbol: GPIOA_IDR
   Definitions



ARM Macro Assembler    Page 24 Alphabetic symbol ordering
Absolute symbols

      At line 24 in file INI.s
   Uses
      At line 75 in file LED_TLC.asm
      At line 141 in file LED_TLC.asm
      At line 511 in file LED_TLC.asm

GPIOA_LCKR 40010818

Symbol: GPIOA_LCKR
   Definitions
      At line 68 in file INI.s
   Uses
      None
Comment: GPIOA_LCKR unused
GPIOA_ODR 4001080C

Symbol: GPIOA_ODR
   Definitions
      At line 44 in file INI.s
   Uses
      None
Comment: GPIOA_ODR unused
GPIOB_BRR 40010C14

Symbol: GPIOB_BRR
   Definitions
      At line 177 in file INI.s
   Uses
      None
Comment: GPIOB_BRR unused
GPIOB_BSRR 40010C10

Symbol: GPIOB_BSRR
   Definitions
      At line 175 in file INI.s
   Uses
      None
Comment: GPIOB_BSRR unused
GPIOB_CRH 40010C04

Symbol: GPIOB_CRH
   Definitions
      At line 134 in file INI.s
   Uses
      At line 837 in file LED_TLC.asm
Comment: GPIOB_CRH used once
GPIOB_CRL 40010C00

Symbol: GPIOB_CRL
   Definitions
      At line 132 in file INI.s
   Uses
      At line 819 in file LED_TLC.asm
      At line 828 in file LED_TLC.asm

GPIOB_IDR 40010C08

Symbol: GPIOB_IDR
   Definitions



ARM Macro Assembler    Page 25 Alphabetic symbol ordering
Absolute symbols

      At line 136 in file INI.s
   Uses
      None
Comment: GPIOB_IDR unused
GPIOB_LCKR 40010C18

Symbol: GPIOB_LCKR
   Definitions
      At line 179 in file INI.s
   Uses
      None
Comment: GPIOB_LCKR unused
GPIOB_ODR 40010C0C

Symbol: GPIOB_ODR
   Definitions
      At line 156 in file INI.s
   Uses
      At line 128 in file LED_TLC.asm
      At line 665 in file LED_TLC.asm
      At line 699 in file LED_TLC.asm

GPIOC_BRR 40011014

Symbol: GPIOC_BRR
   Definitions
      At line 121 in file INI.s
   Uses
      None
Comment: GPIOC_BRR unused
GPIOC_BSRR 40011010

Symbol: GPIOC_BSRR
   Definitions
      At line 119 in file INI.s
   Uses
      None
Comment: GPIOC_BSRR unused
GPIOC_CRH 40011004

Symbol: GPIOC_CRH
   Definitions
      At line 78 in file INI.s
   Uses
      At line 801 in file LED_TLC.asm
Comment: GPIOC_CRH used once
GPIOC_CRL 40011000

Symbol: GPIOC_CRL
   Definitions
      At line 76 in file INI.s
   Uses
      At line 855 in file LED_TLC.asm
Comment: GPIOC_CRL used once
GPIOC_IDR 40011008

Symbol: GPIOC_IDR
   Definitions
      At line 80 in file INI.s



ARM Macro Assembler    Page 26 Alphabetic symbol ordering
Absolute symbols

   Uses
      At line 552 in file LED_TLC.asm
      At line 605 in file LED_TLC.asm

GPIOC_LCKR 40011018

Symbol: GPIOC_LCKR
   Definitions
      At line 123 in file INI.s
   Uses
      None
Comment: GPIOC_LCKR unused
GPIOC_ODR 4001100C

Symbol: GPIOC_ODR
   Definitions
      At line 100 in file INI.s
   Uses
      At line 73 in file LED_TLC.asm
      At line 176 in file LED_TLC.asm

HPRE 42420090

Symbol: HPRE
   Definitions
      At line 211 in file INI.s
   Uses
      None
Comment: HPRE unused
HSEBYP 42420048

Symbol: HSEBYP
   Definitions
      At line 193 in file INI.s
   Uses
      None
Comment: HSEBYP unused
HSEON 42420040

Symbol: HSEON
   Definitions
      At line 195 in file INI.s
   Uses
      None
Comment: HSEON unused
HSERDY 42420044

Symbol: HSERDY
   Definitions
      At line 194 in file INI.s
   Uses
      None
Comment: HSERDY unused
HSERDYF 4242010C

Symbol: HSERDYF
   Definitions
      At line 221 in file INI.s
   Uses



ARM Macro Assembler    Page 27 Alphabetic symbol ordering
Absolute symbols

      None
Comment: HSERDYF unused
HSICAL 42420020

Symbol: HSICAL
   Definitions
      At line 196 in file INI.s
   Uses
      None
Comment: HSICAL unused
HSION 42420000

Symbol: HSION
   Definitions
      At line 199 in file INI.s
   Uses
      None
Comment: HSION unused
HSIRDY 42420004

Symbol: HSIRDY
   Definitions
      At line 198 in file INI.s
   Uses
      None
Comment: HSIRDY unused
HSIRDYF 42420108

Symbol: HSIRDYF
   Definitions
      At line 222 in file INI.s
   Uses
      None
Comment: HSIRDYF unused
HSITRIM 4242000C

Symbol: HSITRIM
   Definitions
      At line 197 in file INI.s
   Uses
      None
Comment: HSITRIM unused
I2C1EN 424203D4

Symbol: I2C1EN
   Definitions
      At line 258 in file INI.s
   Uses
      None
Comment: I2C1EN unused
I2C1_REMAP 42200084

Symbol: I2C1_REMAP
   Definitions
      At line 302 in file INI.s
   Uses
      None
Comment: I2C1_REMAP unused
I2C2EN 424203D8



ARM Macro Assembler    Page 28 Alphabetic symbol ordering
Absolute symbols


Symbol: I2C2EN
   Definitions
      At line 257 in file INI.s
   Uses
      None
Comment: I2C2EN unused
IOPAEN 42420308

Symbol: IOPAEN
   Definitions
      At line 247 in file INI.s
   Uses
      None
Comment: IOPAEN unused
IOPBEN 4242030C

Symbol: IOPBEN
   Definitions
      At line 246 in file INI.s
   Uses
      None
Comment: IOPBEN unused
IOPCEN 42420310

Symbol: IOPCEN
   Definitions
      At line 245 in file INI.s
   Uses
      None
Comment: IOPCEN unused
IOPDEN 42420314

Symbol: IOPDEN
   Definitions
      At line 244 in file INI.s
   Uses
      None
Comment: IOPDEN unused
IOPEEN 42420318

Symbol: IOPEEN
   Definitions
      At line 243 in file INI.s
   Uses
      None
Comment: IOPEEN unused
IOPFEN 4242031C

Symbol: IOPFEN
   Definitions
      At line 242 in file INI.s
   Uses
      None
Comment: IOPFEN unused
IOPGEN 42420320

Symbol: IOPGEN
   Definitions



ARM Macro Assembler    Page 29 Alphabetic symbol ordering
Absolute symbols

      At line 241 in file INI.s
   Uses
      None
Comment: IOPGEN unused
LSERDYF 42420104

Symbol: LSERDYF
   Definitions
      At line 223 in file INI.s
   Uses
      None
Comment: LSERDYF unused
LSIRDYF 42420100

Symbol: LSIRDYF
   Definitions
      At line 224 in file INI.s
   Uses
      None
Comment: LSIRDYF unused
LSIRDYIE 42420120

Symbol: LSIRDYIE
   Definitions
      At line 218 in file INI.s
   Uses
      None
Comment: LSIRDYIE unused
MCO 424200E0

Symbol: MCO
   Definitions
      At line 203 in file INI.s
   Uses
      None
Comment: MCO unused
NVIC_AIRCR E000ED0C

Symbol: NVIC_AIRCR
   Definitions
      At line 611 in file INI.s
   Uses
      None
Comment: NVIC_AIRCR unused
NVIC_ICER E000E180

Symbol: NVIC_ICER
   Definitions
      At line 615 in file INI.s
   Uses
      None
Comment: NVIC_ICER unused
NVIC_ICPR E000E280

Symbol: NVIC_ICPR
   Definitions
      At line 619 in file INI.s
   Uses
      None



ARM Macro Assembler    Page 30 Alphabetic symbol ordering
Absolute symbols

Comment: NVIC_ICPR unused
NVIC_ICSR E000ED04

Symbol: NVIC_ICSR
   Definitions
      At line 607 in file INI.s
   Uses
      None
Comment: NVIC_ICSR unused
NVIC_IPR E000E400

Symbol: NVIC_IPR
   Definitions
      At line 621 in file INI.s
   Uses
      None
Comment: NVIC_IPR unused
NVIC_ISER E000E100

Symbol: NVIC_ISER
   Definitions
      At line 613 in file INI.s
   Uses
      None
Comment: NVIC_ISER unused
NVIC_ISPR E000E200

Symbol: NVIC_ISPR
   Definitions
      At line 617 in file INI.s
   Uses
      None
Comment: NVIC_ISPR unused
NVIC_VTOR E000ED08

Symbol: NVIC_VTOR
   Definitions
      At line 609 in file INI.s
   Uses
      None
Comment: NVIC_VTOR unused
ONE_SECOND_CONST 000003E0

Symbol: ONE_SECOND_CONST
   Definitions
      At line 29 in file LED_TLC.asm
   Uses
      At line 215 in file LED_TLC.asm
      At line 251 in file LED_TLC.asm

OPM_T1 4225800C

Symbol: OPM_T1
   Definitions
      At line 353 in file INI.s
   Uses
      None
Comment: OPM_T1 unused
OPM_T2 4200000C



ARM Macro Assembler    Page 31 Alphabetic symbol ordering
Absolute symbols


Symbol: OPM_T2
   Definitions
      At line 410 in file INI.s
   Uses
      None
Comment: OPM_T2 unused
OPM_T3 4200800C

Symbol: OPM_T3
   Definitions
      At line 471 in file INI.s
   Uses
      None
Comment: OPM_T3 unused
OPM_T4 4201000C

Symbol: OPM_T4
   Definitions
      At line 530 in file INI.s
   Uses
      None
Comment: OPM_T4 unused
PD01_REMAP 422000BC

Symbol: PD01_REMAP
   Definitions
      At line 293 in file INI.s
   Uses
      None
Comment: PD01_REMAP unused
PLLMUL 424200C8

Symbol: PLLMUL
   Definitions
      At line 205 in file INI.s
   Uses
      None
Comment: PLLMUL unused
PLLON 42420060

Symbol: PLLON
   Definitions
      At line 191 in file INI.s
   Uses
      At line 768 in file LED_TLC.asm
Comment: PLLON used once
PLLRDY 42420064

Symbol: PLLRDY
   Definitions
      At line 190 in file INI.s
   Uses
      None
Comment: PLLRDY unused
PLLRDYF 42420110

Symbol: PLLRDYF
   Definitions



ARM Macro Assembler    Page 32 Alphabetic symbol ordering
Absolute symbols

      At line 220 in file INI.s
   Uses
      None
Comment: PLLRDYF unused
PLLSRC 424200C0

Symbol: PLLSRC
   Definitions
      At line 207 in file INI.s
   Uses
      None
Comment: PLLSRC unused
PLLXTPRE 424200C4

Symbol: PLLXTPRE
   Definitions
      At line 206 in file INI.s
   Uses
      None
Comment: PLLXTPRE unused
PPRE1 424200A0

Symbol: PPRE1
   Definitions
      At line 210 in file INI.s
   Uses
      None
Comment: PPRE1 unused
PPRE2 424200AC

Symbol: PPRE2
   Definitions
      At line 209 in file INI.s
   Uses
      None
Comment: PPRE2 unused
PWREN 424203EC

Symbol: PWREN
   Definitions
      At line 253 in file INI.s
   Uses
      None
Comment: PWREN unused
RCC_AHBENR 40021014

Symbol: RCC_AHBENR
   Definitions
      At line 230 in file INI.s
   Uses
      None
Comment: RCC_AHBENR unused
RCC_APB1ENR 4002101C

Symbol: RCC_APB1ENR
   Definitions
      At line 250 in file INI.s
   Uses
      None



ARM Macro Assembler    Page 33 Alphabetic symbol ordering
Absolute symbols

Comment: RCC_APB1ENR unused
RCC_APB1RSTR 40021010

Symbol: RCC_APB1RSTR
   Definitions
      At line 228 in file INI.s
   Uses
      None
Comment: RCC_APB1RSTR unused
RCC_APB2ENR 40021018

Symbol: RCC_APB2ENR
   Definitions
      At line 232 in file INI.s
   Uses
      At line 784 in file LED_TLC.asm
Comment: RCC_APB2ENR used once
RCC_APB2RSTR 4002100C

Symbol: RCC_APB2RSTR
   Definitions
      At line 226 in file INI.s
   Uses
      None
Comment: RCC_APB2RSTR unused
RCC_BDCR 40021020

Symbol: RCC_BDCR
   Definitions
      At line 273 in file INI.s
   Uses
      None
Comment: RCC_BDCR unused
RCC_CFGR 40021004

Symbol: RCC_CFGR
   Definitions
      At line 201 in file INI.s
   Uses
      At line 748 in file LED_TLC.asm
      At line 777 in file LED_TLC.asm

RCC_CIR 40021008

Symbol: RCC_CIR
   Definitions
      At line 215 in file INI.s
   Uses
      None
Comment: RCC_CIR unused
RCC_CR 40021000

Symbol: RCC_CR
   Definitions
      At line 188 in file INI.s
   Uses
      At line 734 in file LED_TLC.asm
      At line 772 in file LED_TLC.asm




ARM Macro Assembler    Page 34 Alphabetic symbol ordering
Absolute symbols

RCC_CSR 40021024

Symbol: RCC_CSR
   Definitions
      At line 275 in file INI.s
   Uses
      None
Comment: RCC_CSR unused
SPI1EN 42420330

Symbol: SPI1EN
   Definitions
      At line 237 in file INI.s
   Uses
      None
Comment: SPI1EN unused
SPI1_REMAP 42200080

Symbol: SPI1_REMAP
   Definitions
      At line 303 in file INI.s
   Uses
      None
Comment: SPI1_REMAP unused
SPI2EN 424203B8

Symbol: SPI2EN
   Definitions
      At line 264 in file INI.s
   Uses
      None
Comment: SPI2EN unused
SPI3EN 424203BC

Symbol: SPI3EN
   Definitions
      At line 263 in file INI.s
   Uses
      None
Comment: SPI3EN unused
SW 42420080

Symbol: SW
   Definitions
      At line 213 in file INI.s
   Uses
      None
Comment: SW unused
SWJ_CFG 422000E0

Symbol: SWJ_CFG
   Definitions
      At line 287 in file INI.s
   Uses
      None
Comment: SWJ_CFG unused
SWS 42420088

Symbol: SWS



ARM Macro Assembler    Page 35 Alphabetic symbol ordering
Absolute symbols

   Definitions
      At line 212 in file INI.s
   Uses
      None
Comment: SWS unused
TIE_T1 42258198

Symbol: TIE_T1
   Definitions
      At line 364 in file INI.s
   Uses
      None
Comment: TIE_T1 unused
TIE_T2 42000198

Symbol: TIE_T2
   Definitions
      At line 421 in file INI.s
   Uses
      None
Comment: TIE_T2 unused
TIE_T3 42008198

Symbol: TIE_T3
   Definitions
      At line 482 in file INI.s
   Uses
      None
Comment: TIE_T3 unused
TIE_T4 42010198

Symbol: TIE_T4
   Definitions
      At line 541 in file INI.s
   Uses
      None
Comment: TIE_T4 unused
TIM1EN 4242032C

Symbol: TIM1EN
   Definitions
      At line 238 in file INI.s
   Uses
      None
Comment: TIM1EN unused
TIM1_ARR 40012C2C

Symbol: TIM1_ARR
   Definitions
      At line 382 in file INI.s
   Uses
      None
Comment: TIM1_ARR unused
TIM1_BDTR 40012C44

Symbol: TIM1_BDTR
   Definitions
      At line 394 in file INI.s
   Uses



ARM Macro Assembler    Page 36 Alphabetic symbol ordering
Absolute symbols

      None
Comment: TIM1_BDTR unused
TIM1_CCMR1 40012C18

Symbol: TIM1_CCMR1
   Definitions
      At line 372 in file INI.s
   Uses
      None
Comment: TIM1_CCMR1 unused
TIM1_CCMR2 40012C1C

Symbol: TIM1_CCMR2
   Definitions
      At line 374 in file INI.s
   Uses
      None
Comment: TIM1_CCMR2 unused
TIM1_CCR 40012C20

Symbol: TIM1_CCR
   Definitions
      At line 376 in file INI.s
   Uses
      None
Comment: TIM1_CCR unused
TIM1_CCR1 40012C34

Symbol: TIM1_CCR1
   Definitions
      At line 386 in file INI.s
   Uses
      None
Comment: TIM1_CCR1 unused
TIM1_CCR2 40012C38

Symbol: TIM1_CCR2
   Definitions
      At line 388 in file INI.s
   Uses
      None
Comment: TIM1_CCR2 unused
TIM1_CCR3 40012C3C

Symbol: TIM1_CCR3
   Definitions
      At line 390 in file INI.s
   Uses
      None
Comment: TIM1_CCR3 unused
TIM1_CCR4 40012C40

Symbol: TIM1_CCR4
   Definitions
      At line 392 in file INI.s
   Uses
      None
Comment: TIM1_CCR4 unused
TIM1_CNT 40012C24



ARM Macro Assembler    Page 37 Alphabetic symbol ordering
Absolute symbols


Symbol: TIM1_CNT
   Definitions
      At line 378 in file INI.s
   Uses
      None
Comment: TIM1_CNT unused
TIM1_CR1 40012C00

Symbol: TIM1_CR1
   Definitions
      At line 350 in file INI.s
   Uses
      None
Comment: TIM1_CR1 unused
TIM1_CR2 40012C04

Symbol: TIM1_CR2
   Definitions
      At line 358 in file INI.s
   Uses
      None
Comment: TIM1_CR2 unused
TIM1_DCR 40012C48

Symbol: TIM1_DCR
   Definitions
      At line 396 in file INI.s
   Uses
      None
Comment: TIM1_DCR unused
TIM1_DIER 40012C0C

Symbol: TIM1_DIER
   Definitions
      At line 362 in file INI.s
   Uses
      None
Comment: TIM1_DIER unused
TIM1_DMAR 40012C4C

Symbol: TIM1_DMAR
   Definitions
      At line 398 in file INI.s
   Uses
      None
Comment: TIM1_DMAR unused
TIM1_EGR 40012C14

Symbol: TIM1_EGR
   Definitions
      At line 370 in file INI.s
   Uses
      None
Comment: TIM1_EGR unused
TIM1_PSC 40012C28

Symbol: TIM1_PSC
   Definitions



ARM Macro Assembler    Page 38 Alphabetic symbol ordering
Absolute symbols

      At line 380 in file INI.s
   Uses
      None
Comment: TIM1_PSC unused
TIM1_RCR 40012C30

Symbol: TIM1_RCR
   Definitions
      At line 384 in file INI.s
   Uses
      None
Comment: TIM1_RCR unused
TIM1_REMAP 42200098

Symbol: TIM1_REMAP
   Definitions
      At line 298 in file INI.s
   Uses
      None
Comment: TIM1_REMAP unused
TIM1_SMCR 40012C08

Symbol: TIM1_SMCR
   Definitions
      At line 360 in file INI.s
   Uses
      None
Comment: TIM1_SMCR unused
TIM1_SR 40012C10

Symbol: TIM1_SR
   Definitions
      At line 368 in file INI.s
   Uses
      None
Comment: TIM1_SR unused
TIM2EN 42420380

Symbol: TIM2EN
   Definitions
      At line 271 in file INI.s
   Uses
      None
Comment: TIM2EN unused
TIM2_ARR 4000002C

Symbol: TIM2_ARR
   Definitions
      At line 442 in file INI.s
   Uses
      None
Comment: TIM2_ARR unused
TIM2_BDTR 40000044

Symbol: TIM2_BDTR
   Definitions
      At line 454 in file INI.s
   Uses
      None



ARM Macro Assembler    Page 39 Alphabetic symbol ordering
Absolute symbols

Comment: TIM2_BDTR unused
TIM2_CCER 40000020

Symbol: TIM2_CCER
   Definitions
      At line 436 in file INI.s
   Uses
      None
Comment: TIM2_CCER unused
TIM2_CCMR1 40000018

Symbol: TIM2_CCMR1
   Definitions
      At line 432 in file INI.s
   Uses
      None
Comment: TIM2_CCMR1 unused
TIM2_CCMR2 4000001C

Symbol: TIM2_CCMR2
   Definitions
      At line 434 in file INI.s
   Uses
      None
Comment: TIM2_CCMR2 unused
TIM2_CCR1 40000034

Symbol: TIM2_CCR1
   Definitions
      At line 446 in file INI.s
   Uses
      None
Comment: TIM2_CCR1 unused
TIM2_CCR2 40000038

Symbol: TIM2_CCR2
   Definitions
      At line 448 in file INI.s
   Uses
      None
Comment: TIM2_CCR2 unused
TIM2_CCR3 4000003C

Symbol: TIM2_CCR3
   Definitions
      At line 450 in file INI.s
   Uses
      None
Comment: TIM2_CCR3 unused
TIM2_CCR4 40000040

Symbol: TIM2_CCR4
   Definitions
      At line 452 in file INI.s
   Uses
      None
Comment: TIM2_CCR4 unused
TIM2_CNT 40000024




ARM Macro Assembler    Page 40 Alphabetic symbol ordering
Absolute symbols

Symbol: TIM2_CNT
   Definitions
      At line 438 in file INI.s
   Uses
      None
Comment: TIM2_CNT unused
TIM2_CR1 40000000

Symbol: TIM2_CR1
   Definitions
      At line 407 in file INI.s
   Uses
      None
Comment: TIM2_CR1 unused
TIM2_CR2 40000004

Symbol: TIM2_CR2
   Definitions
      At line 415 in file INI.s
   Uses
      None
Comment: TIM2_CR2 unused
TIM2_DCR 40000048

Symbol: TIM2_DCR
   Definitions
      At line 456 in file INI.s
   Uses
      None
Comment: TIM2_DCR unused
TIM2_DIER 4000000C

Symbol: TIM2_DIER
   Definitions
      At line 419 in file INI.s
   Uses
      None
Comment: TIM2_DIER unused
TIM2_DMAR 4000004C

Symbol: TIM2_DMAR
   Definitions
      At line 458 in file INI.s
   Uses
      None
Comment: TIM2_DMAR unused
TIM2_EGR 40000014

Symbol: TIM2_EGR
   Definitions
      At line 430 in file INI.s
   Uses
      None
Comment: TIM2_EGR unused
TIM2_PSC 40000028

Symbol: TIM2_PSC
   Definitions
      At line 440 in file INI.s



ARM Macro Assembler    Page 41 Alphabetic symbol ordering
Absolute symbols

   Uses
      None
Comment: TIM2_PSC unused
TIM2_RCR 40000030

Symbol: TIM2_RCR
   Definitions
      At line 444 in file INI.s
   Uses
      None
Comment: TIM2_RCR unused
TIM2_REMAP 422000A0

Symbol: TIM2_REMAP
   Definitions
      At line 297 in file INI.s
   Uses
      None
Comment: TIM2_REMAP unused
TIM2_SMCR 40000008

Symbol: TIM2_SMCR
   Definitions
      At line 417 in file INI.s
   Uses
      None
Comment: TIM2_SMCR unused
TIM2_SR 40000010

Symbol: TIM2_SR
   Definitions
      At line 428 in file INI.s
   Uses
      None
Comment: TIM2_SR unused
TIM3EN 42420384

Symbol: TIM3EN
   Definitions
      At line 270 in file INI.s
   Uses
      None
Comment: TIM3EN unused
TIM3_ARR 4000042C

Symbol: TIM3_ARR
   Definitions
      At line 503 in file INI.s
   Uses
      None
Comment: TIM3_ARR unused
TIM3_BDTR 40000444

Symbol: TIM3_BDTR
   Definitions
      At line 515 in file INI.s
   Uses
      None
Comment: TIM3_BDTR unused



ARM Macro Assembler    Page 42 Alphabetic symbol ordering
Absolute symbols

TIM3_CCER 40000420

Symbol: TIM3_CCER
   Definitions
      At line 497 in file INI.s
   Uses
      None
Comment: TIM3_CCER unused
TIM3_CCMR1 40000418

Symbol: TIM3_CCMR1
   Definitions
      At line 493 in file INI.s
   Uses
      None
Comment: TIM3_CCMR1 unused
TIM3_CCMR2 4000041C

Symbol: TIM3_CCMR2
   Definitions
      At line 495 in file INI.s
   Uses
      None
Comment: TIM3_CCMR2 unused
TIM3_CCR1 40000434

Symbol: TIM3_CCR1
   Definitions
      At line 507 in file INI.s
   Uses
      None
Comment: TIM3_CCR1 unused
TIM3_CCR2 40000438

Symbol: TIM3_CCR2
   Definitions
      At line 509 in file INI.s
   Uses
      None
Comment: TIM3_CCR2 unused
TIM3_CCR3 4000043C

Symbol: TIM3_CCR3
   Definitions
      At line 511 in file INI.s
   Uses
      None
Comment: TIM3_CCR3 unused
TIM3_CCR4 40000440

Symbol: TIM3_CCR4
   Definitions
      At line 513 in file INI.s
   Uses
      None
Comment: TIM3_CCR4 unused
TIM3_CNT 40000424

Symbol: TIM3_CNT



ARM Macro Assembler    Page 43 Alphabetic symbol ordering
Absolute symbols

   Definitions
      At line 499 in file INI.s
   Uses
      None
Comment: TIM3_CNT unused
TIM3_CR1 40000400

Symbol: TIM3_CR1
   Definitions
      At line 468 in file INI.s
   Uses
      None
Comment: TIM3_CR1 unused
TIM3_CR2 40000404

Symbol: TIM3_CR2
   Definitions
      At line 476 in file INI.s
   Uses
      None
Comment: TIM3_CR2 unused
TIM3_DCR 40000448

Symbol: TIM3_DCR
   Definitions
      At line 517 in file INI.s
   Uses
      None
Comment: TIM3_DCR unused
TIM3_DIER 4000040C

Symbol: TIM3_DIER
   Definitions
      At line 480 in file INI.s
   Uses
      None
Comment: TIM3_DIER unused
TIM3_DMAR 4000044C

Symbol: TIM3_DMAR
   Definitions
      At line 519 in file INI.s
   Uses
      None
Comment: TIM3_DMAR unused
TIM3_EGR 40000414

Symbol: TIM3_EGR
   Definitions
      At line 491 in file INI.s
   Uses
      None
Comment: TIM3_EGR unused
TIM3_PSC 40000428

Symbol: TIM3_PSC
   Definitions
      At line 501 in file INI.s
   Uses



ARM Macro Assembler    Page 44 Alphabetic symbol ordering
Absolute symbols

      None
Comment: TIM3_PSC unused
TIM3_RCR 40000430

Symbol: TIM3_RCR
   Definitions
      At line 505 in file INI.s
   Uses
      None
Comment: TIM3_RCR unused
TIM3_REMAP 422000A8

Symbol: TIM3_REMAP
   Definitions
      At line 296 in file INI.s
   Uses
      None
Comment: TIM3_REMAP unused
TIM3_SMCR 40000408

Symbol: TIM3_SMCR
   Definitions
      At line 478 in file INI.s
   Uses
      None
Comment: TIM3_SMCR unused
TIM3_SR 40000410

Symbol: TIM3_SR
   Definitions
      At line 489 in file INI.s
   Uses
      None
Comment: TIM3_SR unused
TIM4EN 42420388

Symbol: TIM4EN
   Definitions
      At line 269 in file INI.s
   Uses
      None
Comment: TIM4EN unused
TIM4_ARR 4000082C

Symbol: TIM4_ARR
   Definitions
      At line 562 in file INI.s
   Uses
      None
Comment: TIM4_ARR unused
TIM4_BDTR 40000844

Symbol: TIM4_BDTR
   Definitions
      At line 574 in file INI.s
   Uses
      None
Comment: TIM4_BDTR unused
TIM4_CCER 40000820



ARM Macro Assembler    Page 45 Alphabetic symbol ordering
Absolute symbols


Symbol: TIM4_CCER
   Definitions
      At line 556 in file INI.s
   Uses
      None
Comment: TIM4_CCER unused
TIM4_CCMR1 40000818

Symbol: TIM4_CCMR1
   Definitions
      At line 552 in file INI.s
   Uses
      None
Comment: TIM4_CCMR1 unused
TIM4_CCMR2 4000081C

Symbol: TIM4_CCMR2
   Definitions
      At line 554 in file INI.s
   Uses
      None
Comment: TIM4_CCMR2 unused
TIM4_CCR1 40000834

Symbol: TIM4_CCR1
   Definitions
      At line 566 in file INI.s
   Uses
      None
Comment: TIM4_CCR1 unused
TIM4_CCR2 40000838

Symbol: TIM4_CCR2
   Definitions
      At line 568 in file INI.s
   Uses
      None
Comment: TIM4_CCR2 unused
TIM4_CCR3 4000083C

Symbol: TIM4_CCR3
   Definitions
      At line 570 in file INI.s
   Uses
      None
Comment: TIM4_CCR3 unused
TIM4_CCR4 40000840

Symbol: TIM4_CCR4
   Definitions
      At line 572 in file INI.s
   Uses
      None
Comment: TIM4_CCR4 unused
TIM4_CNT 40000824

Symbol: TIM4_CNT
   Definitions



ARM Macro Assembler    Page 46 Alphabetic symbol ordering
Absolute symbols

      At line 558 in file INI.s
   Uses
      None
Comment: TIM4_CNT unused
TIM4_CR1 40000800

Symbol: TIM4_CR1
   Definitions
      At line 527 in file INI.s
   Uses
      None
Comment: TIM4_CR1 unused
TIM4_CR2 40000804

Symbol: TIM4_CR2
   Definitions
      At line 535 in file INI.s
   Uses
      None
Comment: TIM4_CR2 unused
TIM4_DCR 40000848

Symbol: TIM4_DCR
   Definitions
      At line 576 in file INI.s
   Uses
      None
Comment: TIM4_DCR unused
TIM4_DIER 4000080C

Symbol: TIM4_DIER
   Definitions
      At line 539 in file INI.s
   Uses
      None
Comment: TIM4_DIER unused
TIM4_DMAR 4000084C

Symbol: TIM4_DMAR
   Definitions
      At line 578 in file INI.s
   Uses
      None
Comment: TIM4_DMAR unused
TIM4_EGR 40000814

Symbol: TIM4_EGR
   Definitions
      At line 550 in file INI.s
   Uses
      None
Comment: TIM4_EGR unused
TIM4_PSC 40000828

Symbol: TIM4_PSC
   Definitions
      At line 560 in file INI.s
   Uses
      None



ARM Macro Assembler    Page 47 Alphabetic symbol ordering
Absolute symbols

Comment: TIM4_PSC unused
TIM4_RCR 40000830

Symbol: TIM4_RCR
   Definitions
      At line 564 in file INI.s
   Uses
      None
Comment: TIM4_RCR unused
TIM4_REMAP 422000B0

Symbol: TIM4_REMAP
   Definitions
      At line 295 in file INI.s
   Uses
      None
Comment: TIM4_REMAP unused
TIM4_SMCR 40000808

Symbol: TIM4_SMCR
   Definitions
      At line 537 in file INI.s
   Uses
      None
Comment: TIM4_SMCR unused
TIM4_SR 40000810

Symbol: TIM4_SR
   Definitions
      At line 548 in file INI.s
   Uses
      None
Comment: TIM4_SR unused
TIM5CH4_IREMAP 422000C0

Symbol: TIM5CH4_IREMAP
   Definitions
      At line 292 in file INI.s
   Uses
      None
Comment: TIM5CH4_IREMAP unused
TIM5EN 4242038C

Symbol: TIM5EN
   Definitions
      At line 268 in file INI.s
   Uses
      None
Comment: TIM5EN unused
TIM6EN 42420390

Symbol: TIM6EN
   Definitions
      At line 267 in file INI.s
   Uses
      None
Comment: TIM6EN unused
TIM7EN 42420394




ARM Macro Assembler    Page 48 Alphabetic symbol ordering
Absolute symbols

Symbol: TIM7EN
   Definitions
      At line 266 in file INI.s
   Uses
      None
Comment: TIM7EN unused
TIM8EN 42420334

Symbol: TIM8EN
   Definitions
      At line 236 in file INI.s
   Uses
      None
Comment: TIM8EN unused
UDIS_T1 42258004

Symbol: UDIS_T1
   Definitions
      At line 355 in file INI.s
   Uses
      None
Comment: UDIS_T1 unused
UDIS_T2 42000004

Symbol: UDIS_T2
   Definitions
      At line 412 in file INI.s
   Uses
      None
Comment: UDIS_T2 unused
UDIS_T3 42008004

Symbol: UDIS_T3
   Definitions
      At line 473 in file INI.s
   Uses
      None
Comment: UDIS_T3 unused
UDIS_T4 42010004

Symbol: UDIS_T4
   Definitions
      At line 532 in file INI.s
   Uses
      None
Comment: UDIS_T4 unused
UIE_T1 42258180

Symbol: UIE_T1
   Definitions
      At line 366 in file INI.s
   Uses
      None
Comment: UIE_T1 unused
UIE_T2 42000180

Symbol: UIE_T2
   Definitions
      At line 426 in file INI.s



ARM Macro Assembler    Page 49 Alphabetic symbol ordering
Absolute symbols

   Uses
      None
Comment: UIE_T2 unused
UIE_T3 42008180

Symbol: UIE_T3
   Definitions
      At line 487 in file INI.s
   Uses
      None
Comment: UIE_T3 unused
UIE_T4 42010180

Symbol: UIE_T4
   Definitions
      At line 546 in file INI.s
   Uses
      None
Comment: UIE_T4 unused
URS_T1 42258008

Symbol: URS_T1
   Definitions
      At line 354 in file INI.s
   Uses
      None
Comment: URS_T1 unused
URS_T2 42000008

Symbol: URS_T2
   Definitions
      At line 411 in file INI.s
   Uses
      None
Comment: URS_T2 unused
URS_T3 42008008

Symbol: URS_T3
   Definitions
      At line 472 in file INI.s
   Uses
      None
Comment: URS_T3 unused
URS_T4 42010008

Symbol: URS_T4
   Definitions
      At line 531 in file INI.s
   Uses
      None
Comment: URS_T4 unused
USART1_REMAP 42200088

Symbol: USART1_REMAP
   Definitions
      At line 301 in file INI.s
   Uses
      None
Comment: USART1_REMAP unused



ARM Macro Assembler    Page 50 Alphabetic symbol ordering
Absolute symbols

USART2EN 424203C4

Symbol: USART2EN
   Definitions
      At line 262 in file INI.s
   Uses
      None
Comment: USART2EN unused
USART2_REMAP 4220008C

Symbol: USART2_REMAP
   Definitions
      At line 300 in file INI.s
   Uses
      None
Comment: USART2_REMAP unused
USART3EN 424203C8

Symbol: USART3EN
   Definitions
      At line 261 in file INI.s
   Uses
      None
Comment: USART3EN unused
USART3_REMAP 42200090

Symbol: USART3_REMAP
   Definitions
      At line 299 in file INI.s
   Uses
      None
Comment: USART3_REMAP unused
USART4EN 424203CC

Symbol: USART4EN
   Definitions
      At line 260 in file INI.s
   Uses
      None
Comment: USART4EN unused
USART5EN 424203D0

Symbol: USART5EN
   Definitions
      At line 259 in file INI.s
   Uses
      None
Comment: USART5EN unused
USART_BRR 40013808

Symbol: USART_BRR
   Definitions
      At line 322 in file INI.s
   Uses
      At line 442 in file LED_TLC.asm
Comment: USART_BRR used once
USART_CR1 4001380C

Symbol: USART_CR1



ARM Macro Assembler    Page 51 Alphabetic symbol ordering
Absolute symbols

   Definitions
      At line 324 in file INI.s
   Uses
      At line 446 in file LED_TLC.asm
Comment: USART_CR1 used once
USART_CR2 40013810

Symbol: USART_CR2
   Definitions
      At line 326 in file INI.s
   Uses
      None
Comment: USART_CR2 unused
USART_CR3 40013814

Symbol: USART_CR3
   Definitions
      At line 328 in file INI.s
   Uses
      None
Comment: USART_CR3 unused
USART_DR 40013804

Symbol: USART_DR
   Definitions
      At line 320 in file INI.s
   Uses
      At line 281 in file LED_TLC.asm
      At line 426 in file LED_TLC.asm

USART_GTPR 40013818

Symbol: USART_GTPR
   Definitions
      At line 330 in file INI.s
   Uses
      None
Comment: USART_GTPR unused
USART_SR 40013800

Symbol: USART_SR
   Definitions
      At line 318 in file INI.s
   Uses
      At line 277 in file LED_TLC.asm
      At line 422 in file LED_TLC.asm

USBEN 424203DC

Symbol: USBEN
   Definitions
      At line 256 in file INI.s
   Uses
      None
Comment: USBEN unused
USBPRE 424200D8

Symbol: USBPRE
   Definitions



ARM Macro Assembler    Page 52 Alphabetic symbol ordering
Absolute symbols

      At line 204 in file INI.s
   Uses
      None
Comment: USBPRE unused
USRT1EN 42420338

Symbol: USRT1EN
   Definitions
      At line 235 in file INI.s
   Uses
      None
Comment: USRT1EN unused
WWDGEN 424203AC

Symbol: WWDGEN
   Definitions
      At line 265 in file INI.s
   Uses
      None
Comment: WWDGEN unused
377 symbols
787 symbols in table
